TN:
SF:/Applications/Xcode.app/Contents/Developer/Platforms/MacOSX.platform/Developer/SDKs/MacOSX26.2.sdk/usr/include/c++/v1/__algorithm/comp.h
FN:40,41,_ZNKSt3__16__lessIvvEclB8ne200100ImmEEbRKT_RKT0_
FNDA:2615,_ZNKSt3__16__lessIvvEclB8ne200100ImmEEbRKT_RKT0_
FNF:1
FNH:1
DA:40,2615
DA:41,2615
LF:2
LH:2
end_of_record
TN:
SF:/Applications/Xcode.app/Contents/Developer/Platforms/MacOSX.platform/Developer/SDKs/MacOSX26.2.sdk/usr/include/c++/v1/__algorithm/max.h
FN:29,30,_ZNSt3__13maxB8ne200100ImNS_6__lessIvvEEEERKT_S5_S5_T0_
FN:35,36,_ZNSt3__13maxB8ne200100ImEERKT_S3_S3_
FNDA:1131,_ZNSt3__13maxB8ne200100ImNS_6__lessIvvEEEERKT_S5_S5_T0_
FNDA:1131,_ZNSt3__13maxB8ne200100ImEERKT_S3_S3_
FNF:2
FNH:2
BRDA:30,0,0,1
BRDA:30,0,1,1
BRF:2
BRH:2
DA:29,1131
DA:30,1131
DA:35,1131
DA:36,1131
LF:4
LH:4
end_of_record
TN:
SF:/Applications/Xcode.app/Contents/Developer/Platforms/MacOSX.platform/Developer/SDKs/MacOSX26.2.sdk/usr/include/c++/v1/__algorithm/min.h
FN:29,30,_ZNSt3__13minB8ne200100ImNS_6__lessIvvEEEERKT_S5_S5_T0_
FN:35,36,_ZNSt3__13minB8ne200100ImEERKT_S3_S3_
FNDA:1484,_ZNSt3__13minB8ne200100ImNS_6__lessIvvEEEERKT_S5_S5_T0_
FNDA:1484,_ZNSt3__13minB8ne200100ImEERKT_S3_S3_
FNF:2
FNH:2
BRDA:30,0,0,1
BRDA:30,0,1,1
BRF:2
BRH:2
DA:29,1484
DA:30,1484
DA:35,1484
DA:36,1484
LF:4
LH:4
end_of_record
TN:
SF:/Applications/Xcode.app/Contents/Developer/Platforms/MacOSX.platform/Developer/SDKs/MacOSX26.2.sdk/usr/include/c++/v1/__iterator/ostreambuf_iterator.h
FN:56,56,_ZNSt3__119ostreambuf_iteratorIcNS_11char_traitsIcEEEC1B8ne200100ERNS_13basic_ostreamIcS2_EE
FN:56,56,_ZNSt3__119ostreambuf_iteratorIcNS_11char_traitsIcEEEC2B8ne200100ERNS_13basic_ostreamIcS2_EE
FN:66,66,_ZNKSt3__119ostreambuf_iteratorIcNS_11char_traitsIcEEE6failedB8ne200100Ev
FNDA:234,_ZNSt3__119ostreambuf_iteratorIcNS_11char_traitsIcEEEC1B8ne200100ERNS_13basic_ostreamIcS2_EE
FNDA:234,_ZNSt3__119ostreambuf_iteratorIcNS_11char_traitsIcEEEC2B8ne200100ERNS_13basic_ostreamIcS2_EE
FNDA:234,_ZNKSt3__119ostreambuf_iteratorIcNS_11char_traitsIcEEE6failedB8ne200100Ev
FNF:3
FNH:3
BRDA:56,0,0,1
BRDA:56,0,1,0
BRF:2
BRH:1
DA:56,468
DA:66,234
LF:2
LH:2
end_of_record
TN:
SF:/Applications/Xcode.app/Contents/Developer/Platforms/MacOSX.platform/Developer/SDKs/MacOSX26.2.sdk/usr/include/c++/v1/__iterator/reverse_iterator.h
FN:129,129,_ZNKSt3__116reverse_iteratorIPN5Catch10Generators16GeneratorWrapperIdEEE4baseB8ne200100Ev
FN:129,129,_ZNKSt3__116reverse_iteratorIPN5Catch10Generators16GeneratorWrapperIiEEE4baseB8ne200100Ev
FN:130,132,_ZNKSt3__116reverse_iteratorIPN5Catch10Generators16GeneratorWrapperIdEEEdeB8ne200100Ev
FN:130,132,_ZNKSt3__116reverse_iteratorIPN5Catch10Generators16GeneratorWrapperIiEEEdeB8ne200100Ev
FN:148,148,_ZNKSt3__116reverse_iteratorIPN5Catch10Generators16GeneratorWrapperIdEEEptB8ne200100Ev
FN:148,148,_ZNKSt3__116reverse_iteratorIPN5Catch10Generators16GeneratorWrapperIiEEEptB8ne200100Ev
FN:151,153,_ZNSt3__116reverse_iteratorIPN5Catch10Generators16GeneratorWrapperIdEEEppB8ne200100Ev
FN:151,153,_ZNSt3__116reverse_iteratorIPN5Catch10Generators16GeneratorWrapperIiEEEppB8ne200100Ev
FN:232,239,_ZNSt3__1neB8ne200100IPN5Catch10Generators16GeneratorWrapperIdEES5_EEbRKNS_16reverse_iteratorIT_EERKNS6_IT0_EE
FN:232,239,_ZNSt3__1neB8ne200100IPN5Catch10Generators16GeneratorWrapperIiEES5_EEbRKNS_16reverse_iteratorIT_EERKNS6_IT0_EE
FN:97,97,_ZNSt3__116reverse_iteratorIPN5Catch10Generators16GeneratorWrapperIdEEEC1B8ne200100ES5_
FN:97,97,_ZNSt3__116reverse_iteratorIPN5Catch10Generators16GeneratorWrapperIdEEEC2B8ne200100ES5_
FN:97,97,_ZNSt3__116reverse_iteratorIPN5Catch10Generators16GeneratorWrapperIiEEEC1B8ne200100ES5_
FN:97,97,_ZNSt3__116reverse_iteratorIPN5Catch10Generators16GeneratorWrapperIiEEEC2B8ne200100ES5_
FNDA:0,_ZNKSt3__116reverse_iteratorIPN5Catch10Generators16GeneratorWrapperIdEEE4baseB8ne200100Ev
FNDA:0,_ZNKSt3__116reverse_iteratorIPN5Catch10Generators16GeneratorWrapperIiEEE4baseB8ne200100Ev
FNDA:0,_ZNKSt3__116reverse_iteratorIPN5Catch10Generators16GeneratorWrapperIdEEEdeB8ne200100Ev
FNDA:0,_ZNKSt3__116reverse_iteratorIPN5Catch10Generators16GeneratorWrapperIiEEEdeB8ne200100Ev
FNDA:0,_ZNKSt3__116reverse_iteratorIPN5Catch10Generators16GeneratorWrapperIdEEEptB8ne200100Ev
FNDA:0,_ZNKSt3__116reverse_iteratorIPN5Catch10Generators16GeneratorWrapperIiEEEptB8ne200100Ev
FNDA:0,_ZNSt3__116reverse_iteratorIPN5Catch10Generators16GeneratorWrapperIdEEEppB8ne200100Ev
FNDA:0,_ZNSt3__116reverse_iteratorIPN5Catch10Generators16GeneratorWrapperIiEEEppB8ne200100Ev
FNDA:0,_ZNSt3__1neB8ne200100IPN5Catch10Generators16GeneratorWrapperIdEES5_EEbRKNS_16reverse_iteratorIT_EERKNS6_IT0_EE
FNDA:0,_ZNSt3__1neB8ne200100IPN5Catch10Generators16GeneratorWrapperIiEES5_EEbRKNS_16reverse_iteratorIT_EERKNS6_IT0_EE
FNDA:0,_ZNSt3__116reverse_iteratorIPN5Catch10Generators16GeneratorWrapperIdEEEC1B8ne200100ES5_
FNDA:0,_ZNSt3__116reverse_iteratorIPN5Catch10Generators16GeneratorWrapperIdEEEC2B8ne200100ES5_
FNDA:0,_ZNSt3__116reverse_iteratorIPN5Catch10Generators16GeneratorWrapperIiEEEC1B8ne200100ES5_
FNDA:0,_ZNSt3__116reverse_iteratorIPN5Catch10Generators16GeneratorWrapperIiEEEC2B8ne200100ES5_
FNF:14
FNH:0
DA:97,0
DA:129,0
DA:130,0
DA:131,0
DA:132,0
DA:148,0
DA:151,0
DA:152,0
DA:153,0
DA:232,0
DA:239,0
LF:11
LH:0
end_of_record
TN:
SF:/Applications/Xcode.app/Contents/Developer/Platforms/MacOSX.platform/Developer/SDKs/MacOSX26.2.sdk/usr/include/c++/v1/__locale
FN:171,172,_ZNSt3__19use_facetB8ne200100INS_5ctypeIcEEEERKT_RKNS_6localeE
FN:571,571,_ZNKSt3__15ctypeIcE5widenB8ne200100Ec
FNDA:20,_ZNSt3__19use_facetB8ne200100INS_5ctypeIcEEEERKT_RKNS_6localeE
FNDA:20,_ZNKSt3__15ctypeIcE5widenB8ne200100Ec
FNF:2
FNH:2
DA:171,20
DA:172,20
DA:571,20
LF:3
LH:3
end_of_record
TN:
SF:/Applications/Xcode.app/Contents/Developer/Platforms/MacOSX.platform/Developer/SDKs/MacOSX26.2.sdk/usr/include/c++/v1/__locale_dir/pad_and_output.h
FN:44,82,_ZNSt3__116__pad_and_outputB8ne200100IcNS_11char_traitsIcEEEENS_19ostreambuf_iteratorIT_T0_EES6_PKS4_S8_S8_RNS_8ios_baseES4_
FNDA:234,_ZNSt3__116__pad_and_outputB8ne200100IcNS_11char_traitsIcEEEENS_19ostreambuf_iteratorIT_T0_EES6_PKS4_S8_S8_RNS_8ios_baseES4_
FNF:1
FNH:1
BRDA:51,0,0,1
BRDA:51,0,1,0
BRDA:55,0,0,0
BRDA:55,0,1,1
BRDA:60,0,0,1
BRDA:60,0,1,0
BRDA:61,0,0,-
BRDA:61,0,1,-
BRDA:66,0,0,1
BRDA:66,0,1,0
BRDA:68,0,0,-
BRDA:68,0,1,-
BRDA:68,0,2,-
BRDA:68,0,3,-
BRDA:72,0,0,-
BRDA:72,0,1,-
BRDA:72,0,2,-
BRDA:74,0,0,1
BRDA:74,0,1,1
BRDA:75,0,0,0
BRDA:75,0,1,1
BRF:21
BRH:7
DA:44,234
DA:51,234
DA:52,0
DA:53,234
DA:54,234
DA:55,234
DA:56,0
DA:58,234
DA:59,234
DA:60,234
DA:61,0
DA:62,0
DA:63,0
DA:65,0
DA:66,234
DA:67,0
DA:68,0
DA:69,0
DA:70,0
DA:72,0
DA:73,234
DA:74,234
DA:75,207
DA:76,0
DA:77,0
DA:79,207
DA:80,234
DA:81,234
DA:82,234
LF:29
LH:16
end_of_record
TN:
SF:/Applications/Xcode.app/Contents/Developer/Platforms/MacOSX.platform/Developer/SDKs/MacOSX26.2.sdk/usr/include/c++/v1/__math/traits.h
FN:99,100,_ZNSt3__16__math5isinfB8ne200100EUa9enable_ifIXLb1EEEd
FNDA:2,_ZNSt3__16__math5isinfB8ne200100EUa9enable_ifIXLb1EEEd
FNF:1
FNH:1
DA:99,2
DA:100,2
LF:2
LH:2
end_of_record
TN:
SF:/Applications/Xcode.app/Contents/Developer/Platforms/MacOSX.platform/Developer/SDKs/MacOSX26.2.sdk/usr/include/c++/v1/__memory/allocate_at_least.h
FN:40,41,_ZNSt3__119__allocate_at_leastB8ne200100INS_9allocatorIN5Catch10Generators16GeneratorWrapperIdEEEEEENS_19__allocation_resultINS_16allocator_traitsIT_E7pointerEEERS9_m
FN:40,41,_ZNSt3__119__allocate_at_leastB8ne200100INS_9allocatorIN5Catch10Generators16GeneratorWrapperIiEEEEEENS_19__allocation_resultINS_16allocator_traitsIT_E7pointerEEERS9_m
FNDA:2,_ZNSt3__119__allocate_at_leastB8ne200100INS_9allocatorIN5Catch10Generators16GeneratorWrapperIdEEEEEENS_19__allocation_resultINS_16allocator_traitsIT_E7pointerEEERS9_m
FNDA:1,_ZNSt3__119__allocate_at_leastB8ne200100INS_9allocatorIN5Catch10Generators16GeneratorWrapperIiEEEEEENS_19__allocation_resultINS_16allocator_traitsIT_E7pointerEEERS9_m
FNF:2
FNH:2
DA:40,3
DA:41,3
LF:2
LH:2
end_of_record
TN:
SF:/Applications/Xcode.app/Contents/Developer/Platforms/MacOSX.platform/Developer/SDKs/MacOSX26.2.sdk/usr/include/c++/v1/__memory/allocator.h
FN:116,122,_ZNSt3__19allocatorIN5Catch10Generators16GeneratorWrapperIdEEE10deallocateB8ne200100EPS4_m
FN:116,122,_ZNSt3__19allocatorIN5Catch10Generators16GeneratorWrapperIiEEE10deallocateB8ne200100EPS4_m
FN:147,148,_ZNKSt3__19allocatorIN5Catch10Generators16GeneratorWrapperIdEEE8max_sizeB8ne200100Ev
FN:147,148,_ZNKSt3__19allocatorIN5Catch10Generators16GeneratorWrapperIiEEE8max_sizeB8ne200100Ev
FN:152,154,_ZNSt3__19allocatorIN5Catch10Generators16GeneratorWrapperIdEEE9constructB8ne200100IS4_JS4_EEEvPT_DpOT0_
FN:152,154,_ZNSt3__19allocatorIN5Catch10Generators16GeneratorWrapperIiEEE9constructB8ne200100IS4_JS4_EEEvPT_DpOT0_
FN:156,156,_ZNSt3__19allocatorIN5Catch10Generators16GeneratorWrapperIdEEE7destroyB8ne200100EPS4_
FN:156,156,_ZNSt3__19allocatorIN5Catch10Generators16GeneratorWrapperIiEEE7destroyB8ne200100EPS4_
FN:71,71,_ZNSt3__116__non_trivial_ifILb1ENS_9allocatorIN5Catch10Generators16GeneratorWrapperIdEEEEEC2B8ne200100Ev
FN:71,71,_ZNSt3__116__non_trivial_ifILb1ENS_9allocatorIN5Catch10Generators16GeneratorWrapperIiEEEEEC2B8ne200100Ev
FN:71,71,_ZNSt3__116__non_trivial_ifILb1ENS_9allocatorIcEEEC2B8ne200100Ev
FN:93,93,_ZNSt3__19allocatorIN5Catch10Generators16GeneratorWrapperIdEEEC1B8ne200100Ev
FN:93,93,_ZNSt3__19allocatorIN5Catch10Generators16GeneratorWrapperIdEEEC2B8ne200100Ev
FN:93,93,_ZNSt3__19allocatorIN5Catch10Generators16GeneratorWrapperIiEEEC1B8ne200100Ev
FN:93,93,_ZNSt3__19allocatorIN5Catch10Generators16GeneratorWrapperIiEEEC2B8ne200100Ev
FN:93,93,_ZNSt3__19allocatorIcEC1B8ne200100Ev
FN:93,93,_ZNSt3__19allocatorIcEC2B8ne200100Ev
FN:98,105,_ZNSt3__19allocatorIN5Catch10Generators16GeneratorWrapperIdEEE8allocateB8ne200100Em
FN:98,105,_ZNSt3__19allocatorIN5Catch10Generators16GeneratorWrapperIiEEE8allocateB8ne200100Em
FNDA:2,_ZNSt3__19allocatorIN5Catch10Generators16GeneratorWrapperIdEEE10deallocateB8ne200100EPS4_m
FNDA:1,_ZNSt3__19allocatorIN5Catch10Generators16GeneratorWrapperIiEEE10deallocateB8ne200100EPS4_m
FNDA:4,_ZNKSt3__19allocatorIN5Catch10Generators16GeneratorWrapperIdEEE8max_sizeB8ne200100Ev
FNDA:2,_ZNKSt3__19allocatorIN5Catch10Generators16GeneratorWrapperIiEEE8max_sizeB8ne200100Ev
FNDA:2,_ZNSt3__19allocatorIN5Catch10Generators16GeneratorWrapperIdEEE9constructB8ne200100IS4_JS4_EEEvPT_DpOT0_
FNDA:8,_ZNSt3__19allocatorIN5Catch10Generators16GeneratorWrapperIiEEE9constructB8ne200100IS4_JS4_EEEvPT_DpOT0_
FNDA:2,_ZNSt3__19allocatorIN5Catch10Generators16GeneratorWrapperIdEEE7destroyB8ne200100EPS4_
FNDA:8,_ZNSt3__19allocatorIN5Catch10Generators16GeneratorWrapperIiEEE7destroyB8ne200100EPS4_
FNDA:2,_ZNSt3__116__non_trivial_ifILb1ENS_9allocatorIN5Catch10Generators16GeneratorWrapperIdEEEEEC2B8ne200100Ev
FNDA:1,_ZNSt3__116__non_trivial_ifILb1ENS_9allocatorIN5Catch10Generators16GeneratorWrapperIiEEEEEC2B8ne200100Ev
FNDA:1676,_ZNSt3__116__non_trivial_ifILb1ENS_9allocatorIcEEEC2B8ne200100Ev
FNDA:2,_ZNSt3__19allocatorIN5Catch10Generators16GeneratorWrapperIdEEEC1B8ne200100Ev
FNDA:2,_ZNSt3__19allocatorIN5Catch10Generators16GeneratorWrapperIdEEEC2B8ne200100Ev
FNDA:1,_ZNSt3__19allocatorIN5Catch10Generators16GeneratorWrapperIiEEEC1B8ne200100Ev
FNDA:1,_ZNSt3__19allocatorIN5Catch10Generators16GeneratorWrapperIiEEEC2B8ne200100Ev
FNDA:1676,_ZNSt3__19allocatorIcEC1B8ne200100Ev
FNDA:1676,_ZNSt3__19allocatorIcEC2B8ne200100Ev
FNDA:2,_ZNSt3__19allocatorIN5Catch10Generators16GeneratorWrapperIdEEE8allocateB8ne200100Em
FNDA:1,_ZNSt3__19allocatorIN5Catch10Generators16GeneratorWrapperIiEEE8allocateB8ne200100Em
FNF:19
FNH:19
BRDA:100,0,0,1
BRDA:100,0,1,0
BRDA:100,0,2,1
BRDA:100,0,3,0
BRF:4
BRH:2
DA:71,1679
DA:93,3358
DA:98,3
DA:100,3
DA:101,0
DA:105,3
DA:116,3
DA:120,3
DA:122,3
DA:147,6
DA:148,6
DA:152,10
DA:153,10
DA:154,10
DA:156,10
LF:15
LH:14
end_of_record
TN:
SF:/Applications/Xcode.app/Contents/Developer/Platforms/MacOSX.platform/Developer/SDKs/MacOSX26.2.sdk/usr/include/c++/v1/__memory/allocator_traits.h
FN:301,303,_ZNSt3__116allocator_traitsINS_9allocatorIN5Catch10Generators16GeneratorWrapperIdEEEEE10deallocateB8ne200100ERS6_PS5_m
FN:301,303,_ZNSt3__116allocator_traitsINS_9allocatorIN5Catch10Generators16GeneratorWrapperIiEEEEE10deallocateB8ne200100ERS6_PS5_m
FN:307,311,_ZNSt3__116allocator_traitsINS_9allocatorIN5Catch10Generators16GeneratorWrapperIdEEEEE9constructB8ne200100IS5_JS5_ELi0EEEvRS6_PT_DpOT0_
FN:307,311,_ZNSt3__116allocator_traitsINS_9allocatorIN5Catch10Generators16GeneratorWrapperIiEEEEE9constructB8ne200100IS5_JS5_ELi0EEEvRS6_PT_DpOT0_
FN:322,326,_ZNSt3__116allocator_traitsINS_9allocatorIN5Catch10Generators16GeneratorWrapperIdEEEEE7destroyB8ne200100IS5_Li0EEEvRS6_PT_
FN:322,326,_ZNSt3__116allocator_traitsINS_9allocatorIN5Catch10Generators16GeneratorWrapperIiEEEEE7destroyB8ne200100IS5_Li0EEEvRS6_PT_
FN:333,335,_ZNSt3__116allocator_traitsINS_9allocatorIN5Catch10Generators16GeneratorWrapperIdEEEEE8max_sizeB8ne200100IS6_Li0EEEmRKS6_
FN:333,335,_ZNSt3__116allocator_traitsINS_9allocatorIN5Catch10Generators16GeneratorWrapperIiEEEEE8max_sizeB8ne200100IS6_Li0EEEmRKS6_
FNDA:2,_ZNSt3__116allocator_traitsINS_9allocatorIN5Catch10Generators16GeneratorWrapperIdEEEEE10deallocateB8ne200100ERS6_PS5_m
FNDA:1,_ZNSt3__116allocator_traitsINS_9allocatorIN5Catch10Generators16GeneratorWrapperIiEEEEE10deallocateB8ne200100ERS6_PS5_m
FNDA:2,_ZNSt3__116allocator_traitsINS_9allocatorIN5Catch10Generators16GeneratorWrapperIdEEEEE9constructB8ne200100IS5_JS5_ELi0EEEvRS6_PT_DpOT0_
FNDA:8,_ZNSt3__116allocator_traitsINS_9allocatorIN5Catch10Generators16GeneratorWrapperIiEEEEE9constructB8ne200100IS5_JS5_ELi0EEEvRS6_PT_DpOT0_
FNDA:2,_ZNSt3__116allocator_traitsINS_9allocatorIN5Catch10Generators16GeneratorWrapperIdEEEEE7destroyB8ne200100IS5_Li0EEEvRS6_PT_
FNDA:8,_ZNSt3__116allocator_traitsINS_9allocatorIN5Catch10Generators16GeneratorWrapperIiEEEEE7destroyB8ne200100IS5_Li0EEEvRS6_PT_
FNDA:4,_ZNSt3__116allocator_traitsINS_9allocatorIN5Catch10Generators16GeneratorWrapperIdEEEEE8max_sizeB8ne200100IS6_Li0EEEmRKS6_
FNDA:2,_ZNSt3__116allocator_traitsINS_9allocatorIN5Catch10Generators16GeneratorWrapperIiEEEEE8max_sizeB8ne200100IS6_Li0EEEmRKS6_
FNF:8
FNH:8
DA:301,3
DA:302,3
DA:303,3
DA:307,10
DA:309,10
DA:311,10
DA:322,10
DA:324,10
DA:326,10
DA:333,6
DA:335,6
LF:11
LH:11
end_of_record
TN:
SF:/Applications/Xcode.app/Contents/Developer/Platforms/MacOSX.platform/Developer/SDKs/MacOSX26.2.sdk/usr/include/c++/v1/__memory/pointer_traits.h
FN:172,173,_ZNSt3__114pointer_traitsIPKcE10pointer_toB8ne200100ERS1_
FN:172,173,_ZNSt3__114pointer_traitsIPcE10pointer_toB8ne200100ERc
FN:191,193,_ZNSt3__112__to_addressB8ne200100IKcEEPT_S3_
FN:191,193,_ZNSt3__112__to_addressB8ne200100IN5Catch10Generators16GeneratorWrapperIdEEEEPT_S6_
FN:191,193,_ZNSt3__112__to_addressB8ne200100IN5Catch10Generators16GeneratorWrapperIiEEEEPT_S6_
FN:191,193,_ZNSt3__112__to_addressB8ne200100IcEEPT_S2_
FN:218,219,_ZNSt3__112__to_addressB8ne200100INS_16reverse_iteratorIPN5Catch10Generators16GeneratorWrapperIdEEEELi0EEEu7__decayIDTclsr19__to_address_helperIT_EE6__callclsr3stdE7declvalIRKS8_EEEEESA_
FN:218,219,_ZNSt3__112__to_addressB8ne200100INS_16reverse_iteratorIPN5Catch10Generators16GeneratorWrapperIiEEEELi0EEEu7__decayIDTclsr19__to_address_helperIT_EE6__callclsr3stdE7declvalIRKS8_EEEEESA_
FN:226,227,_ZNSt3__119__to_address_helperINS_16reverse_iteratorIPN5Catch10Generators16GeneratorWrapperIdEEEEvE6__callB8ne200100ERKS7_
FN:226,227,_ZNSt3__119__to_address_helperINS_16reverse_iteratorIPN5Catch10Generators16GeneratorWrapperIiEEEEvE6__callB8ne200100ERKS7_
FNDA:1226,_ZNSt3__114pointer_traitsIPKcE10pointer_toB8ne200100ERS1_
FNDA:541,_ZNSt3__114pointer_traitsIPcE10pointer_toB8ne200100ERc
FNDA:4391,_ZNSt3__112__to_addressB8ne200100IKcEEPT_S3_
FNDA:10,_ZNSt3__112__to_addressB8ne200100IN5Catch10Generators16GeneratorWrapperIdEEEEPT_S6_
FNDA:19,_ZNSt3__112__to_addressB8ne200100IN5Catch10Generators16GeneratorWrapperIiEEEEPT_S6_
FNDA:30,_ZNSt3__112__to_addressB8ne200100IcEEPT_S2_
FNDA:0,_ZNSt3__112__to_addressB8ne200100INS_16reverse_iteratorIPN5Catch10Generators16GeneratorWrapperIdEEEELi0EEEu7__decayIDTclsr19__to_address_helperIT_EE6__callclsr3stdE7declvalIRKS8_EEEEESA_
FNDA:0,_ZNSt3__112__to_addressB8ne200100INS_16reverse_iteratorIPN5Catch10Generators16GeneratorWrapperIiEEEELi0EEEu7__decayIDTclsr19__to_address_helperIT_EE6__callclsr3stdE7declvalIRKS8_EEEEESA_
FNDA:0,_ZNSt3__119__to_address_helperINS_16reverse_iteratorIPN5Catch10Generators16GeneratorWrapperIdEEEEvE6__callB8ne200100ERKS7_
FNDA:0,_ZNSt3__119__to_address_helperINS_16reverse_iteratorIPN5Catch10Generators16GeneratorWrapperIiEEEEvE6__callB8ne200100ERKS7_
FNF:10
FNH:6
BRDA:227,0,0,-
BRDA:227,0,1,-
BRDA:227,0,2,-
BRDA:227,0,3,-
BRF:4
BRH:0
DA:172,1767
DA:173,1767
DA:191,4450
DA:193,4450
DA:218,0
DA:219,0
DA:226,0
DA:227,0
LF:8
LH:4
end_of_record
TN:
SF:/Applications/Xcode.app/Contents/Developer/Platforms/MacOSX.platform/Developer/SDKs/MacOSX26.2.sdk/usr/include/c++/v1/__memory/uninitialized_algorithms.h
FN:517,520,_ZNSt3__119__allocator_destroyB8ne200100INS_9allocatorIN5Catch10Generators16GeneratorWrapperIdEEEENS_16reverse_iteratorIPS5_EES9_EEvRT_T0_T1_
FN:517,520,_ZNSt3__119__allocator_destroyB8ne200100INS_9allocatorIN5Catch10Generators16GeneratorWrapperIdEEEEPS5_S7_EEvRT_T0_T1_
FN:517,520,_ZNSt3__119__allocator_destroyB8ne200100INS_9allocatorIN5Catch10Generators16GeneratorWrapperIiEEEENS_16reverse_iteratorIPS5_EES9_EEvRT_T0_T1_
FN:517,520,_ZNSt3__119__allocator_destroyB8ne200100INS_9allocatorIN5Catch10Generators16GeneratorWrapperIiEEEEPS5_S7_EEvRT_T0_T1_
FN:526,527,_ZNSt3__129_AllocatorDestroyRangeReverseINS_9allocatorIN5Catch10Generators16GeneratorWrapperIdEEEEPS5_EC1B8ne200100ERS6_RS7_SA_
FN:526,527,_ZNSt3__129_AllocatorDestroyRangeReverseINS_9allocatorIN5Catch10Generators16GeneratorWrapperIdEEEEPS5_EC2B8ne200100ERS6_RS7_SA_
FN:526,527,_ZNSt3__129_AllocatorDestroyRangeReverseINS_9allocatorIN5Catch10Generators16GeneratorWrapperIiEEEEPS5_EC1B8ne200100ERS6_RS7_SA_
FN:526,527,_ZNSt3__129_AllocatorDestroyRangeReverseINS_9allocatorIN5Catch10Generators16GeneratorWrapperIiEEEEPS5_EC2B8ne200100ERS6_RS7_SA_
FN:529,531,_ZNKSt3__129_AllocatorDestroyRangeReverseINS_9allocatorIN5Catch10Generators16GeneratorWrapperIdEEEEPS5_EclB8ne200100Ev
FN:529,531,_ZNKSt3__129_AllocatorDestroyRangeReverseINS_9allocatorIN5Catch10Generators16GeneratorWrapperIiEEEEPS5_EclB8ne200100Ev
FN:619,649,_ZNSt3__134__uninitialized_allocator_relocateB8ne200100INS_9allocatorIN5Catch10Generators16GeneratorWrapperIdEEEEPS5_EEvRT_T0_SA_SA_
FN:619,649,_ZNSt3__134__uninitialized_allocator_relocateB8ne200100INS_9allocatorIN5Catch10Generators16GeneratorWrapperIiEEEEPS5_EEvRT_T0_SA_SA_
FNDA:0,_ZNSt3__119__allocator_destroyB8ne200100INS_9allocatorIN5Catch10Generators16GeneratorWrapperIdEEEENS_16reverse_iteratorIPS5_EES9_EEvRT_T0_T1_
FNDA:2,_ZNSt3__119__allocator_destroyB8ne200100INS_9allocatorIN5Catch10Generators16GeneratorWrapperIdEEEEPS5_S7_EEvRT_T0_T1_
FNDA:0,_ZNSt3__119__allocator_destroyB8ne200100INS_9allocatorIN5Catch10Generators16GeneratorWrapperIiEEEENS_16reverse_iteratorIPS5_EES9_EEvRT_T0_T1_
FNDA:1,_ZNSt3__119__allocator_destroyB8ne200100INS_9allocatorIN5Catch10Generators16GeneratorWrapperIiEEEEPS5_S7_EEvRT_T0_T1_
FNDA:2,_ZNSt3__129_AllocatorDestroyRangeReverseINS_9allocatorIN5Catch10Generators16GeneratorWrapperIdEEEEPS5_EC1B8ne200100ERS6_RS7_SA_
FNDA:2,_ZNSt3__129_AllocatorDestroyRangeReverseINS_9allocatorIN5Catch10Generators16GeneratorWrapperIdEEEEPS5_EC2B8ne200100ERS6_RS7_SA_
FNDA:1,_ZNSt3__129_AllocatorDestroyRangeReverseINS_9allocatorIN5Catch10Generators16GeneratorWrapperIiEEEEPS5_EC1B8ne200100ERS6_RS7_SA_
FNDA:1,_ZNSt3__129_AllocatorDestroyRangeReverseINS_9allocatorIN5Catch10Generators16GeneratorWrapperIiEEEEPS5_EC2B8ne200100ERS6_RS7_SA_
FNDA:0,_ZNKSt3__129_AllocatorDestroyRangeReverseINS_9allocatorIN5Catch10Generators16GeneratorWrapperIdEEEEPS5_EclB8ne200100Ev
FNDA:0,_ZNKSt3__129_AllocatorDestroyRangeReverseINS_9allocatorIN5Catch10Generators16GeneratorWrapperIiEEEEPS5_EclB8ne200100Ev
FNDA:2,_ZNSt3__134__uninitialized_allocator_relocateB8ne200100INS_9allocatorIN5Catch10Generators16GeneratorWrapperIdEEEEPS5_EEvRT_T0_SA_SA_
FNDA:1,_ZNSt3__134__uninitialized_allocator_relocateB8ne200100INS_9allocatorIN5Catch10Generators16GeneratorWrapperIiEEEEPS5_EEvRT_T0_SA_SA_
FNF:12
FNH:8
BRDA:518,0,0,0
BRDA:518,0,1,1
BRDA:518,0,2,-
BRDA:518,0,3,-
BRDA:518,0,4,0
BRDA:518,0,5,1
BRDA:518,0,6,-
BRDA:518,0,7,-
BRDA:632,0,0,1
BRDA:632,0,1,0
BRDA:632,0,2,1
BRDA:632,0,3,0
BRDA:634,0,0,-
BRDA:634,0,1,-
BRDA:634,0,2,-
BRDA:634,0,3,-
BRDA:642,0,0,1
BRDA:642,0,1,0
BRDA:642,0,2,1
BRDA:642,0,3,0
BRF:20
BRH:6
DA:517,3
DA:518,3
DA:519,0
DA:520,3
DA:526,6
DA:527,6
DA:529,0
DA:530,0
DA:531,0
DA:619,3
DA:628,3
DA:629,3
DA:630,3
DA:631,3
DA:632,3
DA:634,0
DA:638,0
DA:639,0
DA:641,3
DA:642,3
DA:643,3
DA:649,3
LF:22
LH:15
end_of_record
TN:
SF:/Applications/Xcode.app/Contents/Developer/Platforms/MacOSX.platform/Developer/SDKs/MacOSX26.2.sdk/usr/include/c++/v1/__new/allocate.h
FN:101,116,_ZNSt3__119__libcpp_deallocateB8ne200100IN5Catch10Generators16GeneratorWrapperIdEEEEvPNS_15__type_identityIT_E4typeENS_15__element_countEm
FN:101,116,_ZNSt3__119__libcpp_deallocateB8ne200100IN5Catch10Generators16GeneratorWrapperIiEEEEvPNS_15__type_identityIT_E4typeENS_15__element_countEm
FN:29,31,_ZNSt3__124__is_overaligned_for_newB8ne200100Em
FN:53,55,_ZNSt3__121__libcpp_operator_newB8ne200100IN5Catch10Generators16GeneratorWrapperIdEEEEPvm
FN:53,55,_ZNSt3__121__libcpp_operator_newB8ne200100IN5Catch10Generators16GeneratorWrapperIiEEEEPvm
FN:62,64,_ZNSt3__121__libcpp_operator_newB8ne200100IN5Catch10Generators16GeneratorWrapperIdEEJmSt11align_val_tEEEPvDpT0_
FN:62,64,_ZNSt3__121__libcpp_operator_newB8ne200100IN5Catch10Generators16GeneratorWrapperIiEEJmSt11align_val_tEEEPvDpT0_
FN:71,77,_ZNSt3__124__libcpp_operator_deleteB8ne200100IJPN5Catch10Generators16GeneratorWrapperIdEEEEEvDpT_
FN:71,77,_ZNSt3__124__libcpp_operator_deleteB8ne200100IJPN5Catch10Generators16GeneratorWrapperIdEESt11align_val_tEEEvDpT_
FN:71,77,_ZNSt3__124__libcpp_operator_deleteB8ne200100IJPN5Catch10Generators16GeneratorWrapperIiEEEEEvDpT_
FN:71,77,_ZNSt3__124__libcpp_operator_deleteB8ne200100IJPN5Catch10Generators16GeneratorWrapperIiEESt11align_val_tEEEvDpT_
FN:81,92,_ZNSt3__117__libcpp_allocateB8ne200100IN5Catch10Generators16GeneratorWrapperIdEEEEPT_NS_15__element_countEm
FN:81,92,_ZNSt3__117__libcpp_allocateB8ne200100IN5Catch10Generators16GeneratorWrapperIiEEEEPT_NS_15__element_countEm
FNDA:2,_ZNSt3__119__libcpp_deallocateB8ne200100IN5Catch10Generators16GeneratorWrapperIdEEEEvPNS_15__type_identityIT_E4typeENS_15__element_countEm
FNDA:1,_ZNSt3__119__libcpp_deallocateB8ne200100IN5Catch10Generators16GeneratorWrapperIiEEEEvPNS_15__type_identityIT_E4typeENS_15__element_countEm
FNDA:3612,_ZNSt3__124__is_overaligned_for_newB8ne200100Em
FNDA:2,_ZNSt3__121__libcpp_operator_newB8ne200100IN5Catch10Generators16GeneratorWrapperIdEEEEPvm
FNDA:1,_ZNSt3__121__libcpp_operator_newB8ne200100IN5Catch10Generators16GeneratorWrapperIiEEEEPvm
FNDA:0,_ZNSt3__121__libcpp_operator_newB8ne200100IN5Catch10Generators16GeneratorWrapperIdEEJmSt11align_val_tEEEPvDpT0_
FNDA:0,_ZNSt3__121__libcpp_operator_newB8ne200100IN5Catch10Generators16GeneratorWrapperIiEEJmSt11align_val_tEEEPvDpT0_
FNDA:2,_ZNSt3__124__libcpp_operator_deleteB8ne200100IJPN5Catch10Generators16GeneratorWrapperIdEEEEEvDpT_
FNDA:0,_ZNSt3__124__libcpp_operator_deleteB8ne200100IJPN5Catch10Generators16GeneratorWrapperIdEESt11align_val_tEEEvDpT_
FNDA:1,_ZNSt3__124__libcpp_operator_deleteB8ne200100IJPN5Catch10Generators16GeneratorWrapperIiEEEEEvDpT_
FNDA:0,_ZNSt3__124__libcpp_operator_deleteB8ne200100IJPN5Catch10Generators16GeneratorWrapperIiEESt11align_val_tEEEvDpT_
FNDA:2,_ZNSt3__117__libcpp_allocateB8ne200100IN5Catch10Generators16GeneratorWrapperIdEEEEPT_NS_15__element_countEm
FNDA:1,_ZNSt3__117__libcpp_allocateB8ne200100IN5Catch10Generators16GeneratorWrapperIiEEEEPT_NS_15__element_countEm
FNF:13
FNH:9
BRDA:84,0,0,0
BRDA:84,0,1,1
BRDA:84,0,2,0
BRDA:84,0,3,1
BRDA:109,0,0,0
BRDA:109,0,1,1
BRDA:109,0,2,0
BRDA:109,0,3,1
BRF:8
BRH:4
DA:29,3612
DA:31,3612
DA:53,3
DA:55,3
DA:62,0
DA:64,0
DA:71,3
DA:73,3
DA:77,3
DA:81,3
DA:82,3
DA:84,3
DA:85,0
DA:86,0
DA:91,3
DA:92,3
DA:101,3
DA:103,3
DA:109,3
DA:110,0
DA:111,0
DA:113,3
DA:116,3
LF:23
LH:17
end_of_record
TN:
SF:/Applications/Xcode.app/Contents/Developer/Platforms/MacOSX.platform/Developer/SDKs/MacOSX26.2.sdk/usr/include/c++/v1/__new/exceptions.h
FN:66,68,_ZSt28__throw_bad_array_new_lengthB8ne200100v
FNDA:0,_ZSt28__throw_bad_array_new_lengthB8ne200100v
FNF:1
FNH:0
DA:66,0
DA:68,0
LF:2
LH:0
end_of_record
TN:
SF:/Applications/Xcode.app/Contents/Developer/Platforms/MacOSX.platform/Developer/SDKs/MacOSX26.2.sdk/usr/include/c++/v1/__ostream/basic_ostream.h
FN:193,193,_ZNKSt3__113basic_ostreamIcNS_11char_traitsIcEEE6sentrycvbB8ne200100Ev
FN:434,435,_ZNSt3__1lsB8ne200100INS_11char_traitsIcEEEERNS_13basic_ostreamIcT_EES6_PKc
FN:573,574,_ZNSt3__1lsB8ne200100IcNS_11char_traitsIcEENS_9allocatorIcEEEERNS_13basic_ostreamIT_T0_EES9_RKNS_12basic_stringIS6_S7_T1_EE
FNDA:234,_ZNKSt3__113basic_ostreamIcNS_11char_traitsIcEEE6sentrycvbB8ne200100Ev
FNDA:46,_ZNSt3__1lsB8ne200100INS_11char_traitsIcEEEERNS_13basic_ostreamIcT_EES6_PKc
FNDA:63,_ZNSt3__1lsB8ne200100IcNS_11char_traitsIcEENS_9allocatorIcEEEERNS_13basic_ostreamIT_T0_EES9_RKNS_12basic_stringIS6_S7_T1_EE
FNF:3
FNH:3
DA:193,234
DA:434,46
DA:435,46
DA:573,63
DA:574,63
LF:5
LH:5
end_of_record
TN:
SF:/Applications/Xcode.app/Contents/Developer/Platforms/MacOSX.platform/Developer/SDKs/MacOSX26.2.sdk/usr/include/c++/v1/__ostream/put_character_sequence.h
FN:30,53,_ZNSt3__124__put_character_sequenceB8ne200100IcNS_11char_traitsIcEEEERNS_13basic_ostreamIT_T0_EES7_PKS4_m
FNDA:234,_ZNSt3__124__put_character_sequenceB8ne200100IcNS_11char_traitsIcEEEERNS_13basic_ostreamIT_T0_EES7_PKS4_m
FNF:1
FNH:1
BRDA:34,0,0,1
BRDA:34,0,1,0
BRDA:35,0,0,1
BRDA:35,0,1,0
BRDA:35,0,2,1
BRDA:35,0,3,0
BRDA:37,0,0,1
BRDA:37,0,1,0
BRDA:37,0,2,0
BRDA:37,0,3,1
BRDA:37,0,4,0
BRDA:37,0,5,1
BRDA:40,0,0,1
BRDA:40,0,1,0
BRDA:40,0,2,0
BRDA:40,0,3,1
BRDA:43,0,0,1
BRDA:43,0,1,0
BRDA:45,0,0,-
BRDA:45,0,1,-
BRDA:49,0,0,-
BRDA:49,0,1,-
BRDA:50,0,0,-
BRDA:50,0,1,-
BRF:24
BRH:9
DA:30,234
DA:34,234
DA:35,234
DA:37,234
DA:38,234
DA:39,234
DA:40,234
DA:41,234
DA:42,234
DA:43,234
DA:44,234
DA:45,0
DA:46,234
DA:48,234
DA:49,0
DA:50,0
DA:52,234
DA:53,0
LF:18
LH:14
end_of_record
TN:
SF:/Applications/Xcode.app/Contents/Developer/Platforms/MacOSX.platform/Developer/SDKs/MacOSX26.2.sdk/usr/include/c++/v1/__split_buffer
FN:115,115,_ZNSt3__114__split_bufferIN5Catch10Generators16GeneratorWrapperIdEERNS_9allocatorIS4_EEE5clearB8ne200100Ev
FN:115,115,_ZNSt3__114__split_bufferIN5Catch10Generators16GeneratorWrapperIiEERNS_9allocatorIS4_EEE5clearB8ne200100Ev
FN:123,124,_ZNKSt3__114__split_bufferIN5Catch10Generators16GeneratorWrapperIdEERNS_9allocatorIS4_EEE8capacityB8ne200100Ev
FN:123,124,_ZNKSt3__114__split_bufferIN5Catch10Generators16GeneratorWrapperIiEERNS_9allocatorIS4_EEE8capacityB8ne200100Ev
FN:172,174,_ZNSt3__114__split_bufferIN5Catch10Generators16GeneratorWrapperIdEERNS_9allocatorIS4_EEE17__destruct_at_endB8ne200100EPS4_
FN:172,174,_ZNSt3__114__split_bufferIN5Catch10Generators16GeneratorWrapperIiEERNS_9allocatorIS4_EEE17__destruct_at_endB8ne200100EPS4_
FN:307,310,_ZNSt3__114__split_bufferIN5Catch10Generators16GeneratorWrapperIdEERNS_9allocatorIS4_EEE17__destruct_at_endB8ne200100EPS4_NS_17integral_constantIbLb0EEE
FN:307,310,_ZNSt3__114__split_bufferIN5Catch10Generators16GeneratorWrapperIiEERNS_9allocatorIS4_EEE17__destruct_at_endB8ne200100EPS4_NS_17integral_constantIbLb0EEE
FN:320,331,_ZNSt3__114__split_bufferIN5Catch10Generators16GeneratorWrapperIdEERNS_9allocatorIS4_EEEC1EmmS7_
FN:320,331,_ZNSt3__114__split_bufferIN5Catch10Generators16GeneratorWrapperIdEERNS_9allocatorIS4_EEEC2EmmS7_
FN:320,331,_ZNSt3__114__split_bufferIN5Catch10Generators16GeneratorWrapperIiEERNS_9allocatorIS4_EEEC1EmmS7_
FN:320,331,_ZNSt3__114__split_bufferIN5Catch10Generators16GeneratorWrapperIiEERNS_9allocatorIS4_EEEC2EmmS7_
FN:334,338,_ZNSt3__114__split_bufferIN5Catch10Generators16GeneratorWrapperIdEERNS_9allocatorIS4_EEED1Ev
FN:334,338,_ZNSt3__114__split_bufferIN5Catch10Generators16GeneratorWrapperIdEERNS_9allocatorIS4_EEED2Ev
FN:334,338,_ZNSt3__114__split_bufferIN5Catch10Generators16GeneratorWrapperIiEERNS_9allocatorIS4_EEED1Ev
FN:334,338,_ZNSt3__114__split_bufferIN5Catch10Generators16GeneratorWrapperIiEERNS_9allocatorIS4_EEED2Ev
FNDA:2,_ZNSt3__114__split_bufferIN5Catch10Generators16GeneratorWrapperIdEERNS_9allocatorIS4_EEE5clearB8ne200100Ev
FNDA:1,_ZNSt3__114__split_bufferIN5Catch10Generators16GeneratorWrapperIiEERNS_9allocatorIS4_EEE5clearB8ne200100Ev
FNDA:0,_ZNKSt3__114__split_bufferIN5Catch10Generators16GeneratorWrapperIdEERNS_9allocatorIS4_EEE8capacityB8ne200100Ev
FNDA:0,_ZNKSt3__114__split_bufferIN5Catch10Generators16GeneratorWrapperIiEERNS_9allocatorIS4_EEE8capacityB8ne200100Ev
FNDA:2,_ZNSt3__114__split_bufferIN5Catch10Generators16GeneratorWrapperIdEERNS_9allocatorIS4_EEE17__destruct_at_endB8ne200100EPS4_
FNDA:1,_ZNSt3__114__split_bufferIN5Catch10Generators16GeneratorWrapperIiEERNS_9allocatorIS4_EEE17__destruct_at_endB8ne200100EPS4_
FNDA:2,_ZNSt3__114__split_bufferIN5Catch10Generators16GeneratorWrapperIdEERNS_9allocatorIS4_EEE17__destruct_at_endB8ne200100EPS4_NS_17integral_constantIbLb0EEE
FNDA:1,_ZNSt3__114__split_bufferIN5Catch10Generators16GeneratorWrapperIiEERNS_9allocatorIS4_EEE17__destruct_at_endB8ne200100EPS4_NS_17integral_constantIbLb0EEE
FNDA:2,_ZNSt3__114__split_bufferIN5Catch10Generators16GeneratorWrapperIdEERNS_9allocatorIS4_EEEC1EmmS7_
FNDA:2,_ZNSt3__114__split_bufferIN5Catch10Generators16GeneratorWrapperIdEERNS_9allocatorIS4_EEEC2EmmS7_
FNDA:1,_ZNSt3__114__split_bufferIN5Catch10Generators16GeneratorWrapperIiEERNS_9allocatorIS4_EEEC1EmmS7_
FNDA:1,_ZNSt3__114__split_bufferIN5Catch10Generators16GeneratorWrapperIiEERNS_9allocatorIS4_EEEC2EmmS7_
FNDA:2,_ZNSt3__114__split_bufferIN5Catch10Generators16GeneratorWrapperIdEERNS_9allocatorIS4_EEED1Ev
FNDA:2,_ZNSt3__114__split_bufferIN5Catch10Generators16GeneratorWrapperIdEERNS_9allocatorIS4_EEED2Ev
FNDA:1,_ZNSt3__114__split_bufferIN5Catch10Generators16GeneratorWrapperIiEERNS_9allocatorIS4_EEED1Ev
FNDA:1,_ZNSt3__114__split_bufferIN5Catch10Generators16GeneratorWrapperIiEERNS_9allocatorIS4_EEED2Ev
FNF:16
FNH:14
BRDA:308,0,0,0
BRDA:308,0,1,1
BRDA:308,0,2,0
BRDA:308,0,3,1
BRDA:309,0,0,-
BRDA:309,0,1,-
BRDA:309,0,2,-
BRDA:309,0,3,-
BRDA:322,0,0,1
BRDA:322,0,1,0
BRDA:322,0,2,1
BRDA:322,0,3,0
BRDA:336,0,0,1
BRDA:336,0,1,0
BRDA:336,0,2,1
BRDA:336,0,3,0
BRDA:337,0,0,-
BRDA:337,0,1,-
BRDA:337,0,2,-
BRDA:337,0,3,-
BRF:20
BRH:6
DA:115,3
DA:123,0
DA:124,0
DA:172,3
DA:173,3
DA:174,3
DA:307,3
DA:308,3
DA:309,0
DA:310,3
DA:320,12
DA:321,9
DA:322,3
DA:323,0
DA:324,0
DA:325,3
DA:326,3
DA:327,3
DA:329,3
DA:330,3
DA:331,6
DA:334,6
DA:335,3
DA:336,3
DA:337,0
DA:338,6
LF:26
LH:20
end_of_record
TN:
SF:/Applications/Xcode.app/Contents/Developer/Platforms/MacOSX.platform/Developer/SDKs/MacOSX26.2.sdk/usr/include/c++/v1/__string/char_traits.h
FN:231,232,_ZNSt3__111char_traitsIcE6lengthB8ne200100EPKc
FN:273,273,_ZNSt3__111char_traitsIcE3eofB8ne200100Ev
FNDA:465,_ZNSt3__111char_traitsIcE6lengthB8ne200100EPKc
FNDA:274,_ZNSt3__111char_traitsIcE3eofB8ne200100Ev
FNF:2
FNH:2
DA:231,465
DA:232,465
DA:273,274
LF:3
LH:3
end_of_record
TN:
SF:/Applications/Xcode.app/Contents/Developer/Platforms/MacOSX.platform/Developer/SDKs/MacOSX26.2.sdk/usr/include/c++/v1/__string/constexpr_c_functions.h
FN:49,63,_ZNSt3__118__constexpr_strlenB8ne200100IcEEmPKT_
FNDA:465,_ZNSt3__118__constexpr_strlenB8ne200100IcEEmPKT_
FNF:1
FNH:1
DA:49,465
DA:63,465
LF:2
LH:2
end_of_record
TN:
SF:/Applications/Xcode.app/Contents/Developer/Platforms/MacOSX.platform/Developer/SDKs/MacOSX26.2.sdk/usr/include/c++/v1/__utility/exception_guard.h
FN:136,137,_ZNSt3__122__make_exception_guardB8ne200100INS_29_AllocatorDestroyRangeReverseINS_9allocatorIN5Catch10Generators16GeneratorWrapperIdEEEEPS6_EEEENS_28__exception_guard_exceptionsIT_EESB_
FN:136,137,_ZNSt3__122__make_exception_guardB8ne200100INS_29_AllocatorDestroyRangeReverseINS_9allocatorIN5Catch10Generators16GeneratorWrapperIiEEEEPS6_EEEENS_28__exception_guard_exceptionsIT_EESB_
FN:68,69,_ZNSt3__128__exception_guard_exceptionsINS_29_AllocatorDestroyRangeReverseINS_9allocatorIN5Catch10Generators16GeneratorWrapperIdEEEEPS6_EEEC1B8ne200100ES9_
FN:68,69,_ZNSt3__128__exception_guard_exceptionsINS_29_AllocatorDestroyRangeReverseINS_9allocatorIN5Catch10Generators16GeneratorWrapperIdEEEEPS6_EEEC2B8ne200100ES9_
FN:68,69,_ZNSt3__128__exception_guard_exceptionsINS_29_AllocatorDestroyRangeReverseINS_9allocatorIN5Catch10Generators16GeneratorWrapperIiEEEEPS6_EEEC1B8ne200100ES9_
FN:68,69,_ZNSt3__128__exception_guard_exceptionsINS_29_AllocatorDestroyRangeReverseINS_9allocatorIN5Catch10Generators16GeneratorWrapperIiEEEEPS6_EEEC2B8ne200100ES9_
FN:82,82,_ZNSt3__128__exception_guard_exceptionsINS_29_AllocatorDestroyRangeReverseINS_9allocatorIN5Catch10Generators16GeneratorWrapperIdEEEEPS6_EEE10__completeB8ne200100Ev
FN:82,82,_ZNSt3__128__exception_guard_exceptionsINS_29_AllocatorDestroyRangeReverseINS_9allocatorIN5Catch10Generators16GeneratorWrapperIiEEEEPS6_EEE10__completeB8ne200100Ev
FN:84,87,_ZNSt3__128__exception_guard_exceptionsINS_29_AllocatorDestroyRangeReverseINS_9allocatorIN5Catch10Generators16GeneratorWrapperIdEEEEPS6_EEED1B8ne200100Ev
FN:84,87,_ZNSt3__128__exception_guard_exceptionsINS_29_AllocatorDestroyRangeReverseINS_9allocatorIN5Catch10Generators16GeneratorWrapperIdEEEEPS6_EEED2B8ne200100Ev
FN:84,87,_ZNSt3__128__exception_guard_exceptionsINS_29_AllocatorDestroyRangeReverseINS_9allocatorIN5Catch10Generators16GeneratorWrapperIiEEEEPS6_EEED1B8ne200100Ev
FN:84,87,_ZNSt3__128__exception_guard_exceptionsINS_29_AllocatorDestroyRangeReverseINS_9allocatorIN5Catch10Generators16GeneratorWrapperIiEEEEPS6_EEED2B8ne200100Ev
FNDA:2,_ZNSt3__122__make_exception_guardB8ne200100INS_29_AllocatorDestroyRangeReverseINS_9allocatorIN5Catch10Generators16GeneratorWrapperIdEEEEPS6_EEEENS_28__exception_guard_exceptionsIT_EESB_
FNDA:1,_ZNSt3__122__make_exception_guardB8ne200100INS_29_AllocatorDestroyRangeReverseINS_9allocatorIN5Catch10Generators16GeneratorWrapperIiEEEEPS6_EEEENS_28__exception_guard_exceptionsIT_EESB_
FNDA:2,_ZNSt3__128__exception_guard_exceptionsINS_29_AllocatorDestroyRangeReverseINS_9allocatorIN5Catch10Generators16GeneratorWrapperIdEEEEPS6_EEEC1B8ne200100ES9_
FNDA:2,_ZNSt3__128__exception_guard_exceptionsINS_29_AllocatorDestroyRangeReverseINS_9allocatorIN5Catch10Generators16GeneratorWrapperIdEEEEPS6_EEEC2B8ne200100ES9_
FNDA:1,_ZNSt3__128__exception_guard_exceptionsINS_29_AllocatorDestroyRangeReverseINS_9allocatorIN5Catch10Generators16GeneratorWrapperIiEEEEPS6_EEEC1B8ne200100ES9_
FNDA:1,_ZNSt3__128__exception_guard_exceptionsINS_29_AllocatorDestroyRangeReverseINS_9allocatorIN5Catch10Generators16GeneratorWrapperIiEEEEPS6_EEEC2B8ne200100ES9_
FNDA:2,_ZNSt3__128__exception_guard_exceptionsINS_29_AllocatorDestroyRangeReverseINS_9allocatorIN5Catch10Generators16GeneratorWrapperIdEEEEPS6_EEE10__completeB8ne200100Ev
FNDA:1,_ZNSt3__128__exception_guard_exceptionsINS_29_AllocatorDestroyRangeReverseINS_9allocatorIN5Catch10Generators16GeneratorWrapperIiEEEEPS6_EEE10__completeB8ne200100Ev
FNDA:2,_ZNSt3__128__exception_guard_exceptionsINS_29_AllocatorDestroyRangeReverseINS_9allocatorIN5Catch10Generators16GeneratorWrapperIdEEEEPS6_EEED1B8ne200100Ev
FNDA:2,_ZNSt3__128__exception_guard_exceptionsINS_29_AllocatorDestroyRangeReverseINS_9allocatorIN5Catch10Generators16GeneratorWrapperIdEEEEPS6_EEED2B8ne200100Ev
FNDA:1,_ZNSt3__128__exception_guard_exceptionsINS_29_AllocatorDestroyRangeReverseINS_9allocatorIN5Catch10Generators16GeneratorWrapperIiEEEEPS6_EEED1B8ne200100Ev
FNDA:1,_ZNSt3__128__exception_guard_exceptionsINS_29_AllocatorDestroyRangeReverseINS_9allocatorIN5Catch10Generators16GeneratorWrapperIiEEEEPS6_EEED2B8ne200100Ev
FNF:12
FNH:12
BRDA:85,0,0,1
BRDA:85,0,1,0
BRDA:85,0,2,1
BRDA:85,0,3,0
BRDA:86,0,0,-
BRDA:86,0,1,-
BRDA:86,0,2,-
BRDA:86,0,3,-
BRF:8
BRH:2
DA:68,6
DA:69,6
DA:82,3
DA:84,6
DA:85,3
DA:86,0
DA:87,6
DA:136,3
DA:137,3
LF:9
LH:8
end_of_record
TN:
SF:/Applications/Xcode.app/Contents/Developer/Platforms/MacOSX.platform/Developer/SDKs/MacOSX26.2.sdk/usr/include/c++/v1/__utility/swap.h
FN:42,47,_ZNSt3__14swapB8ne200100IPN5Catch10Generators16GeneratorWrapperIdEEEENS_9enable_ifIXaasr21is_move_constructibleIT_EE5valuesr18is_move_assignableIS7_EE5valueEvE4typeERS7_SA_
FN:42,47,_ZNSt3__14swapB8ne200100IPN5Catch10Generators16GeneratorWrapperIiEEEENS_9enable_ifIXaasr21is_move_constructibleIT_EE5valuesr18is_move_assignableIS7_EE5valueEvE4typeERS7_SA_
FNDA:6,_ZNSt3__14swapB8ne200100IPN5Catch10Generators16GeneratorWrapperIdEEEENS_9enable_ifIXaasr21is_move_constructibleIT_EE5valuesr18is_move_assignableIS7_EE5valueEvE4typeERS7_SA_
FNDA:3,_ZNSt3__14swapB8ne200100IPN5Catch10Generators16GeneratorWrapperIiEEEENS_9enable_ifIXaasr21is_move_constructibleIT_EE5valuesr18is_move_assignableIS7_EE5valueEvE4typeERS7_SA_
FNF:2
FNH:2
DA:42,9
DA:44,9
DA:45,9
DA:46,9
DA:47,9
LF:5
LH:5
end_of_record
TN:
SF:/Applications/Xcode.app/Contents/Developer/Platforms/MacOSX.platform/Developer/SDKs/MacOSX26.2.sdk/usr/include/c++/v1/__vector/vector.h
FN:1082,1089,_ZNSt3__16vectorIN5Catch10Generators16GeneratorWrapperIdEENS_9allocatorIS4_EEE7reserveEm
FN:1082,1089,_ZNSt3__16vectorIN5Catch10Generators16GeneratorWrapperIiEENS_9allocatorIS4_EEE7reserveEm
FN:1113,1120,_ZNSt3__16vectorIN5Catch10Generators16GeneratorWrapperIdEENS_9allocatorIS4_EEE24__emplace_back_slow_pathIJS4_EEEPS4_DpOT_
FN:1113,1120,_ZNSt3__16vectorIN5Catch10Generators16GeneratorWrapperIiEENS_9allocatorIS4_EEE24__emplace_back_slow_pathIJS4_EEEPS4_DpOT_
FN:1130,1140,_ZNSt3__16vectorIN5Catch10Generators16GeneratorWrapperIdEENS_9allocatorIS4_EEE12emplace_backIJS4_EEERS4_DpOT_
FN:1130,1140,_ZNSt3__16vectorIN5Catch10Generators16GeneratorWrapperIiEENS_9allocatorIS4_EEE12emplace_backIJS4_EEERS4_DpOT_
FN:133,134,_ZNSt3__16vectorIN5Catch10Generators16GeneratorWrapperIdEENS_9allocatorIS4_EEEC1B8ne200100Ev
FN:133,134,_ZNSt3__16vectorIN5Catch10Generators16GeneratorWrapperIdEENS_9allocatorIS4_EEEC2B8ne200100Ev
FN:133,134,_ZNSt3__16vectorIN5Catch10Generators16GeneratorWrapperIiEENS_9allocatorIS4_EEEC1B8ne200100Ev
FN:133,134,_ZNSt3__16vectorIN5Catch10Generators16GeneratorWrapperIiEENS_9allocatorIS4_EEEC2B8ne200100Ev
FN:244,244,_ZNSt3__16vectorIN5Catch10Generators16GeneratorWrapperIdEENS_9allocatorIS4_EEE16__destroy_vectorC1B8ne200100ERS7_
FN:244,244,_ZNSt3__16vectorIN5Catch10Generators16GeneratorWrapperIdEENS_9allocatorIS4_EEE16__destroy_vectorC2B8ne200100ERS7_
FN:244,244,_ZNSt3__16vectorIN5Catch10Generators16GeneratorWrapperIiEENS_9allocatorIS4_EEE16__destroy_vectorC1B8ne200100ERS7_
FN:244,244,_ZNSt3__16vectorIN5Catch10Generators16GeneratorWrapperIiEENS_9allocatorIS4_EEE16__destroy_vectorC2B8ne200100ERS7_
FN:246,252,_ZNSt3__16vectorIN5Catch10Generators16GeneratorWrapperIdEENS_9allocatorIS4_EEE16__destroy_vectorclB8ne200100Ev
FN:246,252,_ZNSt3__16vectorIN5Catch10Generators16GeneratorWrapperIiEENS_9allocatorIS4_EEE16__destroy_vectorclB8ne200100Ev
FN:259,259,_ZNSt3__16vectorIN5Catch10Generators16GeneratorWrapperIdEENS_9allocatorIS4_EEED1B8ne200100Ev
FN:259,259,_ZNSt3__16vectorIN5Catch10Generators16GeneratorWrapperIdEENS_9allocatorIS4_EEED2B8ne200100Ev
FN:259,259,_ZNSt3__16vectorIN5Catch10Generators16GeneratorWrapperIiEENS_9allocatorIS4_EEED1B8ne200100Ev
FN:259,259,_ZNSt3__16vectorIN5Catch10Generators16GeneratorWrapperIiEENS_9allocatorIS4_EEED2B8ne200100Ev
FN:384,385,_ZNKSt3__16vectorIN5Catch10Generators16GeneratorWrapperIdEENS_9allocatorIS4_EEE4sizeB8ne200100Ev
FN:384,385,_ZNKSt3__16vectorIN5Catch10Generators16GeneratorWrapperIiEENS_9allocatorIS4_EEE4sizeB8ne200100Ev
FN:387,388,_ZNKSt3__16vectorIN5Catch10Generators16GeneratorWrapperIdEENS_9allocatorIS4_EEE8capacityB8ne200100Ev
FN:387,388,_ZNKSt3__16vectorIN5Catch10Generators16GeneratorWrapperIiEENS_9allocatorIS4_EEE8capacityB8ne200100Ev
FN:393,394,_ZNKSt3__16vectorIN5Catch10Generators16GeneratorWrapperIdEENS_9allocatorIS4_EEE8max_sizeB8ne200100Ev
FN:393,394,_ZNKSt3__16vectorIN5Catch10Generators16GeneratorWrapperIiEENS_9allocatorIS4_EEE8max_sizeB8ne200100Ev
FN:402,404,_ZNSt3__16vectorIN5Catch10Generators16GeneratorWrapperIdEENS_9allocatorIS4_EEEixB8ne200100Em
FN:402,404,_ZNSt3__16vectorIN5Catch10Generators16GeneratorWrapperIiEENS_9allocatorIS4_EEEixB8ne200100Em
FN:406,408,_ZNKSt3__16vectorIN5Catch10Generators16GeneratorWrapperIdEENS_9allocatorIS4_EEEixB8ne200100Em
FN:406,408,_ZNKSt3__16vectorIN5Catch10Generators16GeneratorWrapperIiEENS_9allocatorIS4_EEEixB8ne200100Em
FN:529,550,_ZNSt3__16vectorIN5Catch10Generators16GeneratorWrapperIdEENS_9allocatorIS4_EEE5clearB8ne200100Ev
FN:529,550,_ZNSt3__16vectorIN5Catch10Generators16GeneratorWrapperIiEENS_9allocatorIS4_EEE5clearB8ne200100Ev
FN:687,692,_ZNKSt3__16vectorIN5Catch10Generators16GeneratorWrapperIdEENS_9allocatorIS4_EEE14__annotate_newB8ne200100Em
FN:687,692,_ZNKSt3__16vectorIN5Catch10Generators16GeneratorWrapperIiEENS_9allocatorIS4_EEE14__annotate_newB8ne200100Em
FN:694,698,_ZNKSt3__16vectorIN5Catch10Generators16GeneratorWrapperIdEENS_9allocatorIS4_EEE17__annotate_deleteB8ne200100Ev
FN:694,698,_ZNKSt3__16vectorIN5Catch10Generators16GeneratorWrapperIiEENS_9allocatorIS4_EEE17__annotate_deleteB8ne200100Ev
FN:707,712,_ZNKSt3__16vectorIN5Catch10Generators16GeneratorWrapperIdEENS_9allocatorIS4_EEE17__annotate_shrinkB8ne200100Em
FN:707,712,_ZNKSt3__16vectorIN5Catch10Generators16GeneratorWrapperIiEENS_9allocatorIS4_EEE17__annotate_shrinkB8ne200100Em
FN:715,720,_ZNSt3__16vectorIN5Catch10Generators16GeneratorWrapperIdEENS_9allocatorIS4_EEE21_ConstructTransactionC1B8ne200100ERS7_m
FN:715,720,_ZNSt3__16vectorIN5Catch10Generators16GeneratorWrapperIdEENS_9allocatorIS4_EEE21_ConstructTransactionC2B8ne200100ERS7_m
FN:715,720,_ZNSt3__16vectorIN5Catch10Generators16GeneratorWrapperIiEENS_9allocatorIS4_EEE21_ConstructTransactionC1B8ne200100ERS7_m
FN:715,720,_ZNSt3__16vectorIN5Catch10Generators16GeneratorWrapperIiEENS_9allocatorIS4_EEE21_ConstructTransactionC2B8ne200100ERS7_m
FN:722,729,_ZNSt3__16vectorIN5Catch10Generators16GeneratorWrapperIdEENS_9allocatorIS4_EEE21_ConstructTransactionD1B8ne200100Ev
FN:722,729,_ZNSt3__16vectorIN5Catch10Generators16GeneratorWrapperIdEENS_9allocatorIS4_EEE21_ConstructTransactionD2B8ne200100Ev
FN:722,729,_ZNSt3__16vectorIN5Catch10Generators16GeneratorWrapperIiEENS_9allocatorIS4_EEE21_ConstructTransactionD1B8ne200100Ev
FN:722,729,_ZNSt3__16vectorIN5Catch10Generators16GeneratorWrapperIiEENS_9allocatorIS4_EEE21_ConstructTransactionD2B8ne200100Ev
FN:740,744,_ZNSt3__16vectorIN5Catch10Generators16GeneratorWrapperIdEENS_9allocatorIS4_EEE22__construct_one_at_endB8ne200100IJS4_EEEvDpOT_
FN:740,744,_ZNSt3__16vectorIN5Catch10Generators16GeneratorWrapperIiEENS_9allocatorIS4_EEE22__construct_one_at_endB8ne200100IJS4_EEEvDpOT_
FN:746,751,_ZNSt3__16vectorIN5Catch10Generators16GeneratorWrapperIdEENS_9allocatorIS4_EEE22__base_destruct_at_endB8ne200100EPS4_
FN:746,751,_ZNSt3__16vectorIN5Catch10Generators16GeneratorWrapperIiEENS_9allocatorIS4_EEE22__base_destruct_at_endB8ne200100EPS4_
FN:763,763,_ZNSt3__16vectorIN5Catch10Generators16GeneratorWrapperIdEENS_9allocatorIS4_EEE20__throw_length_errorB8ne200100Ev
FN:763,763,_ZNSt3__16vectorIN5Catch10Generators16GeneratorWrapperIiEENS_9allocatorIS4_EEE20__throw_length_errorB8ne200100Ev
FN:828,840,_ZNSt3__16vectorIN5Catch10Generators16GeneratorWrapperIdEENS_9allocatorIS4_EEE26__swap_out_circular_bufferERNS_14__split_bufferIS4_RS6_EE
FN:828,840,_ZNSt3__16vectorIN5Catch10Generators16GeneratorWrapperIiEENS_9allocatorIS4_EEE26__swap_out_circular_bufferERNS_14__split_bufferIS4_RS6_EE
FN:886,894,_ZNKSt3__16vectorIN5Catch10Generators16GeneratorWrapperIdEENS_9allocatorIS4_EEE11__recommendB8ne200100Em
FN:886,894,_ZNKSt3__16vectorIN5Catch10Generators16GeneratorWrapperIiEENS_9allocatorIS4_EEE11__recommendB8ne200100Em
FN:965,976,_ZNSt3__16vectorIN5Catch10Generators16GeneratorWrapperIdEENS_9allocatorIS4_EEEC1B8ne200100EOS7_
FN:965,976,_ZNSt3__16vectorIN5Catch10Generators16GeneratorWrapperIdEENS_9allocatorIS4_EEEC2B8ne200100EOS7_
FN:965,976,_ZNSt3__16vectorIN5Catch10Generators16GeneratorWrapperIiEENS_9allocatorIS4_EEEC1B8ne200100EOS7_
FN:965,976,_ZNSt3__16vectorIN5Catch10Generators16GeneratorWrapperIiEENS_9allocatorIS4_EEEC2B8ne200100EOS7_
FNDA:2,_ZNSt3__16vectorIN5Catch10Generators16GeneratorWrapperIdEENS_9allocatorIS4_EEE7reserveEm
FNDA:1,_ZNSt3__16vectorIN5Catch10Generators16GeneratorWrapperIiEENS_9allocatorIS4_EEE7reserveEm
FNDA:0,_ZNSt3__16vectorIN5Catch10Generators16GeneratorWrapperIdEENS_9allocatorIS4_EEE24__emplace_back_slow_pathIJS4_EEEPS4_DpOT_
FNDA:0,_ZNSt3__16vectorIN5Catch10Generators16GeneratorWrapperIiEENS_9allocatorIS4_EEE24__emplace_back_slow_pathIJS4_EEEPS4_DpOT_
FNDA:2,_ZNSt3__16vectorIN5Catch10Generators16GeneratorWrapperIdEENS_9allocatorIS4_EEE12emplace_backIJS4_EEERS4_DpOT_
FNDA:8,_ZNSt3__16vectorIN5Catch10Generators16GeneratorWrapperIiEENS_9allocatorIS4_EEE12emplace_backIJS4_EEERS4_DpOT_
FNDA:2,_ZNSt3__16vectorIN5Catch10Generators16GeneratorWrapperIdEENS_9allocatorIS4_EEEC1B8ne200100Ev
FNDA:2,_ZNSt3__16vectorIN5Catch10Generators16GeneratorWrapperIdEENS_9allocatorIS4_EEEC2B8ne200100Ev
FNDA:1,_ZNSt3__16vectorIN5Catch10Generators16GeneratorWrapperIiEENS_9allocatorIS4_EEEC1B8ne200100Ev
FNDA:1,_ZNSt3__16vectorIN5Catch10Generators16GeneratorWrapperIiEENS_9allocatorIS4_EEEC2B8ne200100Ev
FNDA:4,_ZNSt3__16vectorIN5Catch10Generators16GeneratorWrapperIdEENS_9allocatorIS4_EEE16__destroy_vectorC1B8ne200100ERS7_
FNDA:4,_ZNSt3__16vectorIN5Catch10Generators16GeneratorWrapperIdEENS_9allocatorIS4_EEE16__destroy_vectorC2B8ne200100ERS7_
FNDA:2,_ZNSt3__16vectorIN5Catch10Generators16GeneratorWrapperIiEENS_9allocatorIS4_EEE16__destroy_vectorC1B8ne200100ERS7_
FNDA:2,_ZNSt3__16vectorIN5Catch10Generators16GeneratorWrapperIiEENS_9allocatorIS4_EEE16__destroy_vectorC2B8ne200100ERS7_
FNDA:4,_ZNSt3__16vectorIN5Catch10Generators16GeneratorWrapperIdEENS_9allocatorIS4_EEE16__destroy_vectorclB8ne200100Ev
FNDA:2,_ZNSt3__16vectorIN5Catch10Generators16GeneratorWrapperIiEENS_9allocatorIS4_EEE16__destroy_vectorclB8ne200100Ev
FNDA:4,_ZNSt3__16vectorIN5Catch10Generators16GeneratorWrapperIdEENS_9allocatorIS4_EEED1B8ne200100Ev
FNDA:4,_ZNSt3__16vectorIN5Catch10Generators16GeneratorWrapperIdEENS_9allocatorIS4_EEED2B8ne200100Ev
FNDA:2,_ZNSt3__16vectorIN5Catch10Generators16GeneratorWrapperIiEENS_9allocatorIS4_EEED1B8ne200100Ev
FNDA:2,_ZNSt3__16vectorIN5Catch10Generators16GeneratorWrapperIiEENS_9allocatorIS4_EEED2B8ne200100Ev
FNDA:46,_ZNKSt3__16vectorIN5Catch10Generators16GeneratorWrapperIdEENS_9allocatorIS4_EEE4sizeB8ne200100Ev
FNDA:19,_ZNKSt3__16vectorIN5Catch10Generators16GeneratorWrapperIiEENS_9allocatorIS4_EEE4sizeB8ne200100Ev
FNDA:4,_ZNKSt3__16vectorIN5Catch10Generators16GeneratorWrapperIdEENS_9allocatorIS4_EEE8capacityB8ne200100Ev
FNDA:2,_ZNKSt3__16vectorIN5Catch10Generators16GeneratorWrapperIiEENS_9allocatorIS4_EEE8capacityB8ne200100Ev
FNDA:2,_ZNKSt3__16vectorIN5Catch10Generators16GeneratorWrapperIdEENS_9allocatorIS4_EEE8max_sizeB8ne200100Ev
FNDA:1,_ZNKSt3__16vectorIN5Catch10Generators16GeneratorWrapperIiEENS_9allocatorIS4_EEE8max_sizeB8ne200100Ev
FNDA:20,_ZNSt3__16vectorIN5Catch10Generators16GeneratorWrapperIdEENS_9allocatorIS4_EEEixB8ne200100Em
FNDA:8,_ZNSt3__16vectorIN5Catch10Generators16GeneratorWrapperIiEENS_9allocatorIS4_EEEixB8ne200100Em
FNDA:20,_ZNKSt3__16vectorIN5Catch10Generators16GeneratorWrapperIdEENS_9allocatorIS4_EEEixB8ne200100Em
FNDA:8,_ZNKSt3__16vectorIN5Catch10Generators16GeneratorWrapperIiEENS_9allocatorIS4_EEEixB8ne200100Em
FNDA:2,_ZNSt3__16vectorIN5Catch10Generators16GeneratorWrapperIdEENS_9allocatorIS4_EEE5clearB8ne200100Ev
FNDA:1,_ZNSt3__16vectorIN5Catch10Generators16GeneratorWrapperIiEENS_9allocatorIS4_EEE5clearB8ne200100Ev
FNDA:2,_ZNKSt3__16vectorIN5Catch10Generators16GeneratorWrapperIdEENS_9allocatorIS4_EEE14__annotate_newB8ne200100Em
FNDA:1,_ZNKSt3__16vectorIN5Catch10Generators16GeneratorWrapperIiEENS_9allocatorIS4_EEE14__annotate_newB8ne200100Em
FNDA:4,_ZNKSt3__16vectorIN5Catch10Generators16GeneratorWrapperIdEENS_9allocatorIS4_EEE17__annotate_deleteB8ne200100Ev
FNDA:2,_ZNKSt3__16vectorIN5Catch10Generators16GeneratorWrapperIiEENS_9allocatorIS4_EEE17__annotate_deleteB8ne200100Ev
FNDA:2,_ZNKSt3__16vectorIN5Catch10Generators16GeneratorWrapperIdEENS_9allocatorIS4_EEE17__annotate_shrinkB8ne200100Em
FNDA:1,_ZNKSt3__16vectorIN5Catch10Generators16GeneratorWrapperIiEENS_9allocatorIS4_EEE17__annotate_shrinkB8ne200100Em
FNDA:2,_ZNSt3__16vectorIN5Catch10Generators16GeneratorWrapperIdEENS_9allocatorIS4_EEE21_ConstructTransactionC1B8ne200100ERS7_m
FNDA:2,_ZNSt3__16vectorIN5Catch10Generators16GeneratorWrapperIdEENS_9allocatorIS4_EEE21_ConstructTransactionC2B8ne200100ERS7_m
FNDA:8,_ZNSt3__16vectorIN5Catch10Generators16GeneratorWrapperIiEENS_9allocatorIS4_EEE21_ConstructTransactionC1B8ne200100ERS7_m
FNDA:8,_ZNSt3__16vectorIN5Catch10Generators16GeneratorWrapperIiEENS_9allocatorIS4_EEE21_ConstructTransactionC2B8ne200100ERS7_m
FNDA:2,_ZNSt3__16vectorIN5Catch10Generators16GeneratorWrapperIdEENS_9allocatorIS4_EEE21_ConstructTransactionD1B8ne200100Ev
FNDA:2,_ZNSt3__16vectorIN5Catch10Generators16GeneratorWrapperIdEENS_9allocatorIS4_EEE21_ConstructTransactionD2B8ne200100Ev
FNDA:8,_ZNSt3__16vectorIN5Catch10Generators16GeneratorWrapperIiEENS_9allocatorIS4_EEE21_ConstructTransactionD1B8ne200100Ev
FNDA:8,_ZNSt3__16vectorIN5Catch10Generators16GeneratorWrapperIiEENS_9allocatorIS4_EEE21_ConstructTransactionD2B8ne200100Ev
FNDA:2,_ZNSt3__16vectorIN5Catch10Generators16GeneratorWrapperIdEENS_9allocatorIS4_EEE22__construct_one_at_endB8ne200100IJS4_EEEvDpOT_
FNDA:8,_ZNSt3__16vectorIN5Catch10Generators16GeneratorWrapperIiEENS_9allocatorIS4_EEE22__construct_one_at_endB8ne200100IJS4_EEEvDpOT_
FNDA:2,_ZNSt3__16vectorIN5Catch10Generators16GeneratorWrapperIdEENS_9allocatorIS4_EEE22__base_destruct_at_endB8ne200100EPS4_
FNDA:1,_ZNSt3__16vectorIN5Catch10Generators16GeneratorWrapperIiEENS_9allocatorIS4_EEE22__base_destruct_at_endB8ne200100EPS4_
FNDA:0,_ZNSt3__16vectorIN5Catch10Generators16GeneratorWrapperIdEENS_9allocatorIS4_EEE20__throw_length_errorB8ne200100Ev
FNDA:0,_ZNSt3__16vectorIN5Catch10Generators16GeneratorWrapperIiEENS_9allocatorIS4_EEE20__throw_length_errorB8ne200100Ev
FNDA:2,_ZNSt3__16vectorIN5Catch10Generators16GeneratorWrapperIdEENS_9allocatorIS4_EEE26__swap_out_circular_bufferERNS_14__split_bufferIS4_RS6_EE
FNDA:1,_ZNSt3__16vectorIN5Catch10Generators16GeneratorWrapperIiEENS_9allocatorIS4_EEE26__swap_out_circular_bufferERNS_14__split_bufferIS4_RS6_EE
FNDA:0,_ZNKSt3__16vectorIN5Catch10Generators16GeneratorWrapperIdEENS_9allocatorIS4_EEE11__recommendB8ne200100Em
FNDA:0,_ZNKSt3__16vectorIN5Catch10Generators16GeneratorWrapperIiEENS_9allocatorIS4_EEE11__recommendB8ne200100Em
FNDA:2,_ZNSt3__16vectorIN5Catch10Generators16GeneratorWrapperIdEENS_9allocatorIS4_EEEC1B8ne200100EOS7_
FNDA:2,_ZNSt3__16vectorIN5Catch10Generators16GeneratorWrapperIdEENS_9allocatorIS4_EEEC2B8ne200100EOS7_
FNDA:1,_ZNSt3__16vectorIN5Catch10Generators16GeneratorWrapperIiEENS_9allocatorIS4_EEEC1B8ne200100EOS7_
FNDA:1,_ZNSt3__16vectorIN5Catch10Generators16GeneratorWrapperIiEENS_9allocatorIS4_EEEC2B8ne200100EOS7_
FNF:60
FNH:54
BRDA:247,0,0,1
BRDA:247,0,1,1
BRDA:247,0,2,1
BRDA:247,0,3,1
BRDA:259,0,0,1
BRDA:259,0,1,0
BRDA:259,0,2,1
BRDA:259,0,3,0
BRDA:259,0,4,1
BRDA:259,0,5,0
BRDA:259,0,6,1
BRDA:259,0,7,0
BRDA:394,0,0,1
BRDA:394,0,1,0
BRDA:394,0,2,1
BRDA:394,0,3,0
BRDA:742,0,0,1
BRDA:742,0,1,0
BRDA:742,0,2,1
BRDA:742,0,3,0
BRDA:748,0,0,1
BRDA:748,0,1,1
BRDA:748,0,2,1
BRDA:748,0,3,1
BRDA:749,0,0,1
BRDA:749,0,1,0
BRDA:749,0,2,1
BRDA:749,0,3,0
BRDA:888,0,0,-
BRDA:888,0,1,-
BRDA:888,0,2,-
BRDA:888,0,3,-
BRDA:891,0,0,-
BRDA:891,0,1,-
BRDA:891,0,2,-
BRDA:891,0,3,-
BRDA:1083,0,0,0
BRDA:1083,0,1,1
BRDA:1083,0,2,0
BRDA:1083,0,3,1
BRDA:1084,0,0,1
BRDA:1084,0,1,0
BRDA:1084,0,2,1
BRDA:1084,0,3,0
BRDA:1087,0,0,1
BRDA:1087,0,1,0
BRDA:1087,0,2,1
BRDA:1087,0,3,0
BRDA:1116,0,0,-
BRDA:1116,0,1,-
BRDA:1116,0,2,-
BRDA:1116,0,3,-
BRDA:1118,0,0,-
BRDA:1118,0,1,-
BRDA:1118,0,2,-
BRDA:1118,0,3,-
BRDA:1132,0,0,1
BRDA:1132,0,1,0
BRDA:1132,0,2,1
BRDA:1132,0,3,0
BRF:60
BRH:26
DA:133,9
DA:134,6
DA:244,12
DA:246,6
DA:247,6
DA:248,3
DA:249,3
DA:250,3
DA:251,3
DA:252,6
DA:259,12
DA:384,65
DA:385,65
DA:387,6
DA:388,6
DA:393,3
DA:394,3
DA:402,28
DA:404,28
DA:406,28
DA:408,28
DA:529,3
DA:530,3
DA:531,3
DA:532,3
DA:533,3
DA:548,6
DA:549,6
DA:550,6
DA:687,3
DA:692,3
DA:694,6
DA:698,6
DA:707,3
DA:712,3
DA:715,20
DA:716,20
DA:720,20
DA:722,20
DA:723,10
DA:729,20
DA:740,10
DA:741,10
DA:742,10
DA:743,10
DA:744,10
DA:746,3
DA:747,3
DA:748,13
DA:749,10
DA:750,3
DA:751,3
DA:763,0
DA:828,3
DA:829,3
DA:830,3
DA:831,3
DA:832,3
DA:833,3
DA:834,3
DA:835,3
DA:836,3
DA:837,3
DA:838,3
DA:839,3
DA:840,3
DA:886,0
DA:887,0
DA:888,0
DA:889,0
DA:890,0
DA:891,0
DA:892,0
DA:893,0
DA:894,0
DA:965,12
DA:971,6
DA:972,3
DA:973,3
DA:974,3
DA:975,3
DA:976,6
DA:1082,3
DA:1083,3
DA:1084,3
DA:1085,0
DA:1086,3
DA:1087,3
DA:1088,3
DA:1089,3
DA:1113,0
DA:1114,0
DA:1116,0
DA:1117,0
DA:1118,0
DA:1119,0
DA:1120,0
DA:1130,10
DA:1131,10
DA:1132,10
DA:1133,10
DA:1134,10
DA:1135,10
DA:1136,0
DA:1138,10
DA:1140,10
LF:106
LH:87
end_of_record
TN:
SF:/Applications/Xcode.app/Contents/Developer/Platforms/MacOSX.platform/Developer/SDKs/MacOSX26.2.sdk/usr/include/c++/v1/ios
FN:374,374,_ZNKSt3__18ios_base5rdbufB8ne200100Ev
FN:462,462,_ZNKSt3__18ios_base5flagsB8ne200100Ev
FN:497,497,_ZNKSt3__18ios_base5widthB8ne200100Ev
FN:499,502,_ZNSt3__18ios_base5widthB8ne200100El
FN:509,509,_ZNSt3__18ios_base8setstateB8ne200100Ej
FN:550,552,_ZNSt3__118_SentinelValueFillINS_11char_traitsIcEEEaSB8ne200100Ei
FN:554,554,_ZNKSt3__118_SentinelValueFillINS_11char_traitsIcEEE8__is_setB8ne200100Ev
FN:555,555,_ZNKSt3__118_SentinelValueFillINS_11char_traitsIcEEE5__getB8ne200100Ev
FN:586,586,_ZNSt3__19basic_iosIcNS_11char_traitsIcEEE8setstateB8ne200100Ej
FN:668,669,_ZNKSt3__19basic_iosIcNS_11char_traitsIcEEE5rdbufB8ne200100Ev
FN:695,697,_ZNKSt3__19basic_iosIcNS_11char_traitsIcEEE5widenB8ne200100Ec
FN:700,703,_ZNKSt3__19basic_iosIcNS_11char_traitsIcEEE4fillB8ne200100Ev
FNDA:244,_ZNKSt3__18ios_base5rdbufB8ne200100Ev
FNDA:234,_ZNKSt3__18ios_base5flagsB8ne200100Ev
FNDA:234,_ZNKSt3__18ios_base5widthB8ne200100Ev
FNDA:234,_ZNSt3__18ios_base5widthB8ne200100El
FNDA:0,_ZNSt3__18ios_base8setstateB8ne200100Ej
FNDA:20,_ZNSt3__118_SentinelValueFillINS_11char_traitsIcEEEaSB8ne200100Ei
FNDA:234,_ZNKSt3__118_SentinelValueFillINS_11char_traitsIcEEE8__is_setB8ne200100Ev
FNDA:234,_ZNKSt3__118_SentinelValueFillINS_11char_traitsIcEEE5__getB8ne200100Ev
FNDA:0,_ZNSt3__19basic_iosIcNS_11char_traitsIcEEE8setstateB8ne200100Ej
FNDA:244,_ZNKSt3__19basic_iosIcNS_11char_traitsIcEEE5rdbufB8ne200100Ev
FNDA:20,_ZNKSt3__19basic_iosIcNS_11char_traitsIcEEE5widenB8ne200100Ec
FNDA:234,_ZNKSt3__19basic_iosIcNS_11char_traitsIcEEE4fillB8ne200100Ev
FNF:12
FNH:10
BRDA:696,0,0,1
BRDA:696,0,1,0
BRDA:696,0,2,1
BRDA:696,0,3,0
BRDA:701,0,0,1
BRDA:701,0,1,1
BRF:6
BRH:4
DA:374,244
DA:462,234
DA:497,234
DA:499,234
DA:500,234
DA:501,234
DA:502,234
DA:509,0
DA:550,20
DA:551,20
DA:552,20
DA:554,234
DA:555,234
DA:586,0
DA:668,244
DA:669,244
DA:695,20
DA:696,20
DA:697,0
DA:700,234
DA:701,234
DA:702,20
DA:703,234
LF:23
LH:20
end_of_record
TN:
SF:/Applications/Xcode.app/Contents/Developer/Platforms/MacOSX.platform/Developer/SDKs/MacOSX26.2.sdk/usr/include/c++/v1/limits
FN:205,205,_ZNSt3__123__libcpp_numeric_limitsIlLb1EE3maxB8ne200100Ev
FN:377,378,_ZNSt3__123__libcpp_numeric_limitsIdLb1EE8infinityB8ne200100Ev
FN:472,472,_ZNSt3__114numeric_limitsIlE3maxB8ne200100Ev
FN:501,502,_ZNSt3__114numeric_limitsIdE8infinityB8ne200100Ev
FNDA:1204,_ZNSt3__123__libcpp_numeric_limitsIlLb1EE3maxB8ne200100Ev
FNDA:4,_ZNSt3__123__libcpp_numeric_limitsIdLb1EE8infinityB8ne200100Ev
FNDA:1204,_ZNSt3__114numeric_limitsIlE3maxB8ne200100Ev
FNDA:4,_ZNSt3__114numeric_limitsIdE8infinityB8ne200100Ev
FNF:4
FNH:4
DA:205,1204
DA:377,4
DA:378,4
DA:472,1204
DA:501,4
DA:502,4
LF:6
LH:6
end_of_record
TN:
SF:/Applications/Xcode.app/Contents/Developer/Platforms/MacOSX.platform/Developer/SDKs/MacOSX26.2.sdk/usr/include/c++/v1/stdexcept
FN:143,143,_ZNSt16invalid_argumentC1B8ne200100EPKc
FN:143,143,_ZNSt16invalid_argumentC2B8ne200100EPKc
FN:155,155,_ZNSt12length_errorC1B8ne200100EPKc
FN:155,155,_ZNSt12length_errorC2B8ne200100EPKc
FN:242,252,_ZNSt3__120__throw_length_errorB8ne200100EPKc
FNDA:2,_ZNSt16invalid_argumentC1B8ne200100EPKc
FNDA:2,_ZNSt16invalid_argumentC2B8ne200100EPKc
FNDA:0,_ZNSt12length_errorC1B8ne200100EPKc
FNDA:0,_ZNSt12length_errorC2B8ne200100EPKc
FNDA:0,_ZNSt3__120__throw_length_errorB8ne200100EPKc
FNF:5
FNH:2
BRDA:244,0,0,-
BRDA:244,0,1,-
BRF:2
BRH:0
DA:143,4
DA:155,0
DA:242,0
DA:244,0
DA:252,0
LF:5
LH:1
end_of_record
TN:
SF:/Applications/Xcode.app/Contents/Developer/Platforms/MacOSX.platform/Developer/SDKs/MacOSX26.2.sdk/usr/include/c++/v1/streambuf
FN:227,228,_ZNSt3__115basic_streambufIcNS_11char_traitsIcEEE5sputnB8ne200100EPKcl
FNDA:207,_ZNSt3__115basic_streambufIcNS_11char_traitsIcEEE5sputnB8ne200100EPKcl
FNF:1
FNH:1
DA:227,207
DA:228,207
LF:2
LH:2
end_of_record
TN:
SF:/Applications/Xcode.app/Contents/Developer/Platforms/MacOSX.platform/Developer/SDKs/MacOSX26.2.sdk/usr/include/c++/v1/string
FN:1006,1015,_ZNSt3__112basic_stringIcNS_11char_traitsIcEENS_9allocatorIcEEEC1B8ne200100Ev
FN:1006,1015,_ZNSt3__112basic_stringIcNS_11char_traitsIcEENS_9allocatorIcEEEC2B8ne200100Ev
FN:1108,1111,_ZNSt3__112basic_stringIcNS_11char_traitsIcEENS_9allocatorIcEEEC1B8ne200100EPKcm
FN:1108,1111,_ZNSt3__112basic_stringIcNS_11char_traitsIcEENS_9allocatorIcEEEC2B8ne200100EPKcm
FN:1120,1120,_ZNSt3__112basic_stringIcNS_11char_traitsIcEENS_9allocatorIcEEEC1B8ne200100Emc
FN:1120,1120,_ZNSt3__112basic_stringIcNS_11char_traitsIcEENS_9allocatorIcEEEC2B8ne200100Emc
FN:1310,1311,_ZNKSt3__112basic_stringIcNS_11char_traitsIcEENS_9allocatorIcEEE4sizeB8ne200100Ev
FN:1729,1729,_ZNKSt3__112basic_stringIcNS_11char_traitsIcEENS_9allocatorIcEEE5c_strB8ne200100Ev
FN:1730,1731,_ZNKSt3__112basic_stringIcNS_11char_traitsIcEENS_9allocatorIcEEE4dataB8ne200100Ev
FN:1734,1735,_ZNSt3__112basic_stringIcNS_11char_traitsIcEENS_9allocatorIcEEE4dataB8ne200100Ev
FN:1898,1902,_ZNKSt3__112basic_stringIcNS_11char_traitsIcEENS_9allocatorIcEEE9__is_longB8ne200100Ev
FN:1983,1985,_ZNKSt3__112basic_stringIcNS_11char_traitsIcEENS_9allocatorIcEEE16__get_short_sizeB8ne200100Ev
FN:1992,1994,_ZNKSt3__112basic_stringIcNS_11char_traitsIcEENS_9allocatorIcEEE15__get_long_sizeB8ne200100Ev
FN:2019,2021,_ZNSt3__112basic_stringIcNS_11char_traitsIcEENS_9allocatorIcEEE18__get_long_pointerB8ne200100Ev
FN:2024,2026,_ZNKSt3__112basic_stringIcNS_11char_traitsIcEENS_9allocatorIcEEE18__get_long_pointerB8ne200100Ev
FN:2030,2031,_ZNSt3__112basic_stringIcNS_11char_traitsIcEENS_9allocatorIcEEE19__get_short_pointerB8ne200100Ev
FN:2035,2036,_ZNKSt3__112basic_stringIcNS_11char_traitsIcEENS_9allocatorIcEEE19__get_short_pointerB8ne200100Ev
FN:2039,2040,_ZNSt3__112basic_stringIcNS_11char_traitsIcEENS_9allocatorIcEEE13__get_pointerB8ne200100Ev
FN:2042,2043,_ZNKSt3__112basic_stringIcNS_11char_traitsIcEENS_9allocatorIcEEE13__get_pointerB8ne200100Ev
FN:2061,2067,_ZNKSt3__112basic_stringIcNS_11char_traitsIcEENS_9allocatorIcEEE14__annotate_newB8ne200100Em
FN:4308,4309,_ZNSt3__18literals15string_literalsli1sB8ne200100EPKcm
FNDA:1125,_ZNSt3__112basic_stringIcNS_11char_traitsIcEENS_9allocatorIcEEEC1B8ne200100Ev
FNDA:1125,_ZNSt3__112basic_stringIcNS_11char_traitsIcEENS_9allocatorIcEEEC2B8ne200100Ev
FNDA:196,_ZNSt3__112basic_stringIcNS_11char_traitsIcEENS_9allocatorIcEEEC1B8ne200100EPKcm
FNDA:196,_ZNSt3__112basic_stringIcNS_11char_traitsIcEENS_9allocatorIcEEEC2B8ne200100EPKcm
FNDA:36,_ZNSt3__112basic_stringIcNS_11char_traitsIcEENS_9allocatorIcEEEC1B8ne200100Emc
FNDA:36,_ZNSt3__112basic_stringIcNS_11char_traitsIcEENS_9allocatorIcEEEC2B8ne200100Emc
FNDA:3946,_ZNKSt3__112basic_stringIcNS_11char_traitsIcEENS_9allocatorIcEEE4sizeB8ne200100Ev
FNDA:1298,_ZNKSt3__112basic_stringIcNS_11char_traitsIcEENS_9allocatorIcEEE5c_strB8ne200100Ev
FNDA:2244,_ZNKSt3__112basic_stringIcNS_11char_traitsIcEENS_9allocatorIcEEE4dataB8ne200100Ev
FNDA:30,_ZNSt3__112basic_stringIcNS_11char_traitsIcEENS_9allocatorIcEEE4dataB8ne200100Ev
FNDA:9171,_ZNKSt3__112basic_stringIcNS_11char_traitsIcEENS_9allocatorIcEEE9__is_longB8ne200100Ev
FNDA:2535,_ZNKSt3__112basic_stringIcNS_11char_traitsIcEENS_9allocatorIcEEE16__get_short_sizeB8ne200100Ev
FNDA:1779,_ZNKSt3__112basic_stringIcNS_11char_traitsIcEENS_9allocatorIcEEE15__get_long_sizeB8ne200100Ev
FNDA:481,_ZNSt3__112basic_stringIcNS_11char_traitsIcEENS_9allocatorIcEEE18__get_long_pointerB8ne200100Ev
FNDA:1045,_ZNKSt3__112basic_stringIcNS_11char_traitsIcEENS_9allocatorIcEEE18__get_long_pointerB8ne200100Ev
FNDA:541,_ZNSt3__112basic_stringIcNS_11char_traitsIcEENS_9allocatorIcEEE19__get_short_pointerB8ne200100Ev
FNDA:1226,_ZNKSt3__112basic_stringIcNS_11char_traitsIcEENS_9allocatorIcEEE19__get_short_pointerB8ne200100Ev
FNDA:529,_ZNSt3__112basic_stringIcNS_11char_traitsIcEENS_9allocatorIcEEE13__get_pointerB8ne200100Ev
FNDA:2271,_ZNKSt3__112basic_stringIcNS_11char_traitsIcEENS_9allocatorIcEEE13__get_pointerB8ne200100Ev
FNDA:2457,_ZNKSt3__112basic_stringIcNS_11char_traitsIcEENS_9allocatorIcEEE14__annotate_newB8ne200100Em
FNDA:9,_ZNSt3__18literals15string_literalsli1sB8ne200100EPKcm
FNF:21
FNH:21
BRDA:1311,0,0,1
BRDA:1311,0,1,1
BRDA:2040,0,0,1
BRDA:2040,0,1,1
BRDA:2043,0,0,1
BRDA:2043,0,1,1
BRF:6
BRH:6
DA:1006,3375
DA:1011,1125
DA:1013,1125
DA:1014,1125
DA:1015,2250
DA:1108,392
DA:1110,196
DA:1111,392
DA:1120,72
DA:1310,3946
DA:1311,3946
DA:1729,1298
DA:1730,2244
DA:1731,2244
DA:1734,30
DA:1735,30
DA:1898,9171
DA:1902,9171
DA:1983,2535
DA:1985,2535
DA:1992,1779
DA:1994,1779
DA:2019,481
DA:2021,481
DA:2024,1045
DA:2026,1045
DA:2030,541
DA:2031,541
DA:2035,1226
DA:2036,1226
DA:2039,529
DA:2040,529
DA:2042,2271
DA:2043,2271
DA:2061,2457
DA:2067,2457
DA:4308,9
DA:4309,9
LF:38
LH:38
end_of_record
TN:
SF:/Users/acuoci/Downloads/cpp-github-tutorial/build/_deps/catch2-src/src/catch2/catch_approx.hpp
FN:47,49,_ZN5CatcheqIdvEEbRKT_RKNS_6ApproxE
FN:88,91,_ZN5Catch6Approx7epsilonIdvEERS0_RKT_
FNDA:25,_ZN5CatcheqIdvEEbRKT_RKNS_6ApproxE
FNDA:5,_ZN5Catch6Approx7epsilonIdvEERS0_RKT_
FNF:2
FNH:2
DA:47,25
DA:48,25
DA:49,25
DA:88,5
DA:89,5
DA:90,5
DA:91,5
LF:7
LH:7
end_of_record
TN:
SF:/Users/acuoci/Downloads/cpp-github-tutorial/build/_deps/catch2-src/src/catch2/catch_message.hpp
FN:27,_ZN5Catch13MessageStreamC1Ev
FN:27,_ZN5Catch13MessageStreamC2Ev
FN:27,_ZN5Catch13MessageStreamD1Ev
FN:27,_ZN5Catch13MessageStreamD2Ev
FN:30,_ZN5Catch13MessageStreamlsIA27_cEERS0_RKT_
FNDA:1,_ZN5Catch13MessageStreamC1Ev
FNDA:2,_ZN5Catch13MessageStreamC2Ev
FNDA:1,_ZN5Catch13MessageStreamD1Ev
FNDA:2,_ZN5Catch13MessageStreamD2Ev
FNDA:1,_ZN5Catch13MessageStreamlsIA27_cEERS0_RKT_
FNF:5
FNH:5
DA:30,1
DA:31,1
DA:32,1
LF:3
LH:3
end_of_record
TN:
SF:/Users/acuoci/Downloads/cpp-github-tutorial/build/_deps/catch2-src/src/catch2/catch_session.hpp
FN:36,43,_ZN5Catch7Session3runIcEEiiPKPKT_
FNDA:10,_ZN5Catch7Session3runIcEEiiPKPKT_
FNF:1
FNH:1
BRDA:37,0,0,0
BRDA:37,0,1,1
BRDA:40,0,0,0
BRDA:40,0,1,1
BRF:4
BRH:2
DA:36,10
DA:37,10
DA:38,0
DA:39,10
DA:40,10
DA:41,10
DA:42,10
DA:43,10
LF:8
LH:7
end_of_record
TN:
SF:/Users/acuoci/Downloads/cpp-github-tutorial/build/_deps/catch2-src/src/catch2/catch_tostring.hpp
FN:149,150,_ZN5Catch6Detail9stringifyINS_6ApproxEEENSt3__112basic_stringIcNS3_11char_traitsIcEENS3_9allocatorIcEEEERKT_
FN:149,150,_ZN5Catch6Detail9stringifyIbEENSt3__112basic_stringIcNS2_11char_traitsIcEENS2_9allocatorIcEEEERKT_
FN:149,150,_ZN5Catch6Detail9stringifyIdEENSt3__112basic_stringIcNS2_11char_traitsIcEENS2_9allocatorIcEEEERKT_
FN:149,150,_ZN5Catch6Detail9stringifyIiEENSt3__112basic_stringIcNS2_11char_traitsIcEENS2_9allocatorIcEEEERKT_
FN:270,272,_ZN5Catch11StringMakerIbvE7convertEb
FNDA:0,_ZN5Catch6Detail9stringifyINS_6ApproxEEENSt3__112basic_stringIcNS3_11char_traitsIcEENS3_9allocatorIcEEEERKT_
FNDA:0,_ZN5Catch6Detail9stringifyIbEENSt3__112basic_stringIcNS2_11char_traitsIcEENS2_9allocatorIcEEEERKT_
FNDA:0,_ZN5Catch6Detail9stringifyIdEENSt3__112basic_stringIcNS2_11char_traitsIcEENS2_9allocatorIcEEEERKT_
FNDA:0,_ZN5Catch6Detail9stringifyIiEENSt3__112basic_stringIcNS2_11char_traitsIcEENS2_9allocatorIcEEEERKT_
FNDA:0,_ZN5Catch11StringMakerIbvE7convertEb
FNF:5
FNH:0
BRDA:272,0,0,-
BRDA:272,0,1,-
BRF:2
BRH:0
DA:149,0
DA:150,0
DA:270,0
DA:272,0
LF:4
LH:0
end_of_record
TN:
SF:/Users/acuoci/Downloads/cpp-github-tutorial/build/_deps/catch2-src/src/catch2/generators/catch_generators.hpp
FN:109,_ZN5Catch10Generators5valueIiiEENS0_16GeneratorWrapperIT0_EEOT_
FN:120,_ZN5Catch10Generators10GeneratorsIdEC1EOS2_
FN:120,_ZN5Catch10Generators10GeneratorsIdEC2EOS2_
FN:120,_ZN5Catch10Generators10GeneratorsIdED0Ev
FN:120,_ZN5Catch10Generators10GeneratorsIdED1Ev
FN:120,_ZN5Catch10Generators10GeneratorsIdED2Ev
FN:120,_ZN5Catch10Generators10GeneratorsIiEC1EOS2_
FN:120,_ZN5Catch10Generators10GeneratorsIiEC2EOS2_
FN:120,_ZN5Catch10Generators10GeneratorsIiED0Ev
FN:120,_ZN5Catch10Generators10GeneratorsIiED1Ev
FN:120,_ZN5Catch10Generators10GeneratorsIiED2Ev
FN:124,_ZN5Catch10Generators10GeneratorsIdE13add_generatorEONS0_16GeneratorWrapperIdEE
FN:124,_ZN5Catch10Generators10GeneratorsIiE13add_generatorEONS0_16GeneratorWrapperIiEE
FN:130,_ZN5Catch10Generators10GeneratorsIiE13add_generatorEOi
FN:139,_ZN5Catch10Generators10GeneratorsIdE14add_generatorsINS0_16GeneratorWrapperIdEEEEvOT_
FN:139,_ZN5Catch10Generators10GeneratorsIiE14add_generatorsIiEEvOT_
FN:144,_ZN5Catch10Generators10GeneratorsIiE14add_generatorsINS0_16GeneratorWrapperIiEEJiiiiiiiEEEvOT_DpOT0_
FN:144,_ZN5Catch10Generators10GeneratorsIiE14add_generatorsIiJiEEEvOT_DpOT0_
FN:144,_ZN5Catch10Generators10GeneratorsIiE14add_generatorsIiJiiEEEvOT_DpOT0_
FN:144,_ZN5Catch10Generators10GeneratorsIiE14add_generatorsIiJiiiEEEvOT_DpOT0_
FN:144,_ZN5Catch10Generators10GeneratorsIiE14add_generatorsIiJiiiiEEEvOT_DpOT0_
FN:144,_ZN5Catch10Generators10GeneratorsIiE14add_generatorsIiJiiiiiEEEvOT_DpOT0_
FN:144,_ZN5Catch10Generators10GeneratorsIiE14add_generatorsIiJiiiiiiEEEvOT_DpOT0_
FN:151,_ZN5Catch10Generators10GeneratorsIdEC1IJNS0_16GeneratorWrapperIdEEEEEDpOT_
FN:151,_ZN5Catch10Generators10GeneratorsIdEC2IJNS0_16GeneratorWrapperIdEEEEEDpOT_
FN:151,_ZN5Catch10Generators10GeneratorsIiEC1IJNS0_16GeneratorWrapperIiEEiiiiiiiEEEDpOT_
FN:151,_ZN5Catch10Generators10GeneratorsIiEC2IJNS0_16GeneratorWrapperIiEEiiiiiiiEEEDpOT_
FN:156,_ZNK5Catch10Generators10GeneratorsIdE3getEv
FN:156,_ZNK5Catch10Generators10GeneratorsIiE3getEv
FN:160,_ZN5Catch10Generators10GeneratorsIdE4nextEv
FN:160,_ZN5Catch10Generators10GeneratorsIiE4nextEv
FN:184,_ZN5Catch10Generators14makeGeneratorsIiJiiiiiiiEEENS0_10GeneratorsIT_EEONS0_16GeneratorWrapperIS3_EEDpOT0_
FN:188,_ZN5Catch10Generators14makeGeneratorsIdEENS0_10GeneratorsIT_EEONS0_16GeneratorWrapperIS3_EE
FN:192,_ZN5Catch10Generators14makeGeneratorsIiJiiiiiiiEEENS0_10GeneratorsIu7__decayIT_EEEOS3_DpOT0_
FN:207,_ZN5Catch10Generators8generateIZL22CATCH2_INTERNAL_TEST_6vE3$_0EENDTclfp1_EE4typeENS_9StringRefERKNS_14SourceLineInfoERKT_
FN:207,_ZN5Catch10Generators8generateIZL22CATCH2_INTERNAL_TEST_9vE3$_0EENDTclfp1_EE4typeENS_9StringRefERKNS_14SourceLineInfoERKT_
FN:207,_ZN5Catch10Generators8generateIZL22CATCH2_INTERNAL_TEST_9vE3$_1EENDTclfp1_EE4typeENS_9StringRefERKNS_14SourceLineInfoERKT_
FN:34,_ZN5Catch10Generators10IGeneratorIdEC2EOS2_
FN:34,_ZN5Catch10Generators10IGeneratorIdEC2Ev
FN:34,_ZN5Catch10Generators10IGeneratorIdED0Ev
FN:34,_ZN5Catch10Generators10IGeneratorIdED1Ev
FN:34,_ZN5Catch10Generators10IGeneratorIdED2Ev
FN:34,_ZN5Catch10Generators10IGeneratorIiEC2EOS2_
FN:34,_ZN5Catch10Generators10IGeneratorIiEC2Ev
FN:34,_ZN5Catch10Generators10IGeneratorIiED0Ev
FN:34,_ZN5Catch10Generators10IGeneratorIiED1Ev
FN:34,_ZN5Catch10Generators10IGeneratorIiED2Ev
FN:35,_ZNK5Catch10Generators10IGeneratorIdE13stringifyImplEv
FN:35,_ZNK5Catch10Generators10IGeneratorIiE13stringifyImplEv
FN:52,_ZN5Catch10Generators16GeneratorWrapperIdEC1EOS2_
FN:52,_ZN5Catch10Generators16GeneratorWrapperIdEC2EOS2_
FN:52,_ZN5Catch10Generators16GeneratorWrapperIdED1Ev
FN:52,_ZN5Catch10Generators16GeneratorWrapperIdED2Ev
FN:52,_ZN5Catch10Generators16GeneratorWrapperIiEC1EOS2_
FN:52,_ZN5Catch10Generators16GeneratorWrapperIiEC2EOS2_
FN:52,_ZN5Catch10Generators16GeneratorWrapperIiED1Ev
FN:52,_ZN5Catch10Generators16GeneratorWrapperIiED2Ev
FN:58,_ZN5Catch10Generators16GeneratorWrapperIdEC1ENS_6Detail10unique_ptrINS0_10IGeneratorIdEEEE
FN:58,_ZN5Catch10Generators16GeneratorWrapperIdEC2ENS_6Detail10unique_ptrINS0_10IGeneratorIdEEEE
FN:58,_ZN5Catch10Generators16GeneratorWrapperIiEC1ENS_6Detail10unique_ptrINS0_10IGeneratorIiEEEE
FN:58,_ZN5Catch10Generators16GeneratorWrapperIiEC2ENS_6Detail10unique_ptrINS0_10IGeneratorIiEEEE
FN:61,_ZNK5Catch10Generators16GeneratorWrapperIdE3getEv
FN:61,_ZNK5Catch10Generators16GeneratorWrapperIiE3getEv
FN:64,_ZN5Catch10Generators16GeneratorWrapperIdE4nextEv
FN:64,_ZN5Catch10Generators16GeneratorWrapperIiE4nextEv
FN:71,_ZN5Catch10Generators20SingleValueGeneratorIiED0Ev
FN:71,_ZN5Catch10Generators20SingleValueGeneratorIiED1Ev
FN:71,_ZN5Catch10Generators20SingleValueGeneratorIiED2Ev
FN:77,_ZN5Catch10Generators20SingleValueGeneratorIiEC1EOi
FN:77,_ZN5Catch10Generators20SingleValueGeneratorIiEC2EOi
FN:81,_ZNK5Catch10Generators20SingleValueGeneratorIiE3getEv
FN:84,_ZN5Catch10Generators20SingleValueGeneratorIiE4nextEv
FNDA:8,_ZN5Catch10Generators5valueIiiEENS0_16GeneratorWrapperIT0_EEOT_
FNDA:2,_ZN5Catch10Generators10GeneratorsIdEC1EOS2_
FNDA:2,_ZN5Catch10Generators10GeneratorsIdEC2EOS2_
FNDA:2,_ZN5Catch10Generators10GeneratorsIdED0Ev
FNDA:4,_ZN5Catch10Generators10GeneratorsIdED1Ev
FNDA:4,_ZN5Catch10Generators10GeneratorsIdED2Ev
FNDA:1,_ZN5Catch10Generators10GeneratorsIiEC1EOS2_
FNDA:1,_ZN5Catch10Generators10GeneratorsIiEC2EOS2_
FNDA:1,_ZN5Catch10Generators10GeneratorsIiED0Ev
FNDA:2,_ZN5Catch10Generators10GeneratorsIiED1Ev
FNDA:2,_ZN5Catch10Generators10GeneratorsIiED2Ev
FNDA:2,_ZN5Catch10Generators10GeneratorsIdE13add_generatorEONS0_16GeneratorWrapperIdEE
FNDA:1,_ZN5Catch10Generators10GeneratorsIiE13add_generatorEONS0_16GeneratorWrapperIiEE
FNDA:7,_ZN5Catch10Generators10GeneratorsIiE13add_generatorEOi
FNDA:2,_ZN5Catch10Generators10GeneratorsIdE14add_generatorsINS0_16GeneratorWrapperIdEEEEvOT_
FNDA:1,_ZN5Catch10Generators10GeneratorsIiE14add_generatorsIiEEvOT_
FNDA:1,_ZN5Catch10Generators10GeneratorsIiE14add_generatorsINS0_16GeneratorWrapperIiEEJiiiiiiiEEEvOT_DpOT0_
FNDA:1,_ZN5Catch10Generators10GeneratorsIiE14add_generatorsIiJiEEEvOT_DpOT0_
FNDA:1,_ZN5Catch10Generators10GeneratorsIiE14add_generatorsIiJiiEEEvOT_DpOT0_
FNDA:1,_ZN5Catch10Generators10GeneratorsIiE14add_generatorsIiJiiiEEEvOT_DpOT0_
FNDA:1,_ZN5Catch10Generators10GeneratorsIiE14add_generatorsIiJiiiiEEEvOT_DpOT0_
FNDA:1,_ZN5Catch10Generators10GeneratorsIiE14add_generatorsIiJiiiiiEEEvOT_DpOT0_
FNDA:1,_ZN5Catch10Generators10GeneratorsIiE14add_generatorsIiJiiiiiiEEEvOT_DpOT0_
FNDA:2,_ZN5Catch10Generators10GeneratorsIdEC1IJNS0_16GeneratorWrapperIdEEEEEDpOT_
FNDA:2,_ZN5Catch10Generators10GeneratorsIdEC2IJNS0_16GeneratorWrapperIdEEEEEDpOT_
FNDA:1,_ZN5Catch10Generators10GeneratorsIiEC1IJNS0_16GeneratorWrapperIiEEiiiiiiiEEEDpOT_
FNDA:1,_ZN5Catch10Generators10GeneratorsIiEC2IJNS0_16GeneratorWrapperIiEEiiiiiiiEEEDpOT_
FNDA:20,_ZNK5Catch10Generators10GeneratorsIdE3getEv
FNDA:8,_ZNK5Catch10Generators10GeneratorsIiE3getEv
FNDA:20,_ZN5Catch10Generators10GeneratorsIdE4nextEv
FNDA:8,_ZN5Catch10Generators10GeneratorsIiE4nextEv
FNDA:1,_ZN5Catch10Generators14makeGeneratorsIiJiiiiiiiEEENS0_10GeneratorsIT_EEONS0_16GeneratorWrapperIS3_EEDpOT0_
FNDA:2,_ZN5Catch10Generators14makeGeneratorsIdEENS0_10GeneratorsIT_EEONS0_16GeneratorWrapperIS3_EE
FNDA:1,_ZN5Catch10Generators14makeGeneratorsIiJiiiiiiiEEENS0_10GeneratorsIu7__decayIT_EEEOS3_DpOT0_
FNDA:8,_ZN5Catch10Generators8generateIZL22CATCH2_INTERNAL_TEST_6vE3$_0EENDTclfp1_EE4typeENS_9StringRefERKNS_14SourceLineInfoERKT_
FNDA:10,_ZN5Catch10Generators8generateIZL22CATCH2_INTERNAL_TEST_9vE3$_0EENDTclfp1_EE4typeENS_9StringRefERKNS_14SourceLineInfoERKT_
FNDA:10,_ZN5Catch10Generators8generateIZL22CATCH2_INTERNAL_TEST_9vE3$_1EENDTclfp1_EE4typeENS_9StringRefERKNS_14SourceLineInfoERKT_
FNDA:2,_ZN5Catch10Generators10IGeneratorIdEC2EOS2_
FNDA:6,_ZN5Catch10Generators10IGeneratorIdEC2Ev
FNDA:0,_ZN5Catch10Generators10IGeneratorIdED0Ev
FNDA:0,_ZN5Catch10Generators10IGeneratorIdED1Ev
FNDA:8,_ZN5Catch10Generators10IGeneratorIdED2Ev
FNDA:1,_ZN5Catch10Generators10IGeneratorIiEC2EOS2_
FNDA:9,_ZN5Catch10Generators10IGeneratorIiEC2Ev
FNDA:0,_ZN5Catch10Generators10IGeneratorIiED0Ev
FNDA:0,_ZN5Catch10Generators10IGeneratorIiED1Ev
FNDA:10,_ZN5Catch10Generators10IGeneratorIiED2Ev
FNDA:0,_ZNK5Catch10Generators10IGeneratorIdE13stringifyImplEv
FNDA:0,_ZNK5Catch10Generators10IGeneratorIiE13stringifyImplEv
FNDA:4,_ZN5Catch10Generators16GeneratorWrapperIdEC1EOS2_
FNDA:4,_ZN5Catch10Generators16GeneratorWrapperIdEC2EOS2_
FNDA:8,_ZN5Catch10Generators16GeneratorWrapperIdED1Ev
FNDA:8,_ZN5Catch10Generators16GeneratorWrapperIdED2Ev
FNDA:8,_ZN5Catch10Generators16GeneratorWrapperIiEC1EOS2_
FNDA:8,_ZN5Catch10Generators16GeneratorWrapperIiEC2EOS2_
FNDA:16,_ZN5Catch10Generators16GeneratorWrapperIiED1Ev
FNDA:16,_ZN5Catch10Generators16GeneratorWrapperIiED2Ev
FNDA:4,_ZN5Catch10Generators16GeneratorWrapperIdEC1ENS_6Detail10unique_ptrINS0_10IGeneratorIdEEEE
FNDA:4,_ZN5Catch10Generators16GeneratorWrapperIdEC2ENS_6Detail10unique_ptrINS0_10IGeneratorIdEEEE
FNDA:8,_ZN5Catch10Generators16GeneratorWrapperIiEC1ENS_6Detail10unique_ptrINS0_10IGeneratorIiEEEE
FNDA:8,_ZN5Catch10Generators16GeneratorWrapperIiEC2ENS_6Detail10unique_ptrINS0_10IGeneratorIiEEEE
FNDA:40,_ZNK5Catch10Generators16GeneratorWrapperIdE3getEv
FNDA:8,_ZNK5Catch10Generators16GeneratorWrapperIiE3getEv
FNDA:38,_ZN5Catch10Generators16GeneratorWrapperIdE4nextEv
FNDA:8,_ZN5Catch10Generators16GeneratorWrapperIiE4nextEv
FNDA:8,_ZN5Catch10Generators20SingleValueGeneratorIiED0Ev
FNDA:8,_ZN5Catch10Generators20SingleValueGeneratorIiED1Ev
FNDA:8,_ZN5Catch10Generators20SingleValueGeneratorIiED2Ev
FNDA:8,_ZN5Catch10Generators20SingleValueGeneratorIiEC1EOi
FNDA:8,_ZN5Catch10Generators20SingleValueGeneratorIiEC2EOi
FNDA:8,_ZNK5Catch10Generators20SingleValueGeneratorIiE3getEv
FNDA:8,_ZN5Catch10Generators20SingleValueGeneratorIiE4nextEv
FNF:72
FNH:66
BRDA:110,0,0,1
BRDA:110,0,1,0
BRDA:111,0,0,1
BRDA:111,0,1,0
BRDA:131,0,0,1
BRDA:131,0,1,0
BRDA:152,0,0,1
BRDA:152,0,1,0
BRDA:152,0,2,1
BRDA:152,0,3,0
BRDA:153,0,0,1
BRDA:153,0,1,0
BRDA:153,0,2,1
BRDA:153,0,3,0
BRDA:161,0,0,0
BRDA:161,0,1,1
BRDA:161,0,2,0
BRDA:161,0,3,1
BRDA:165,0,0,0
BRDA:165,0,1,1
BRDA:165,0,2,1
BRDA:165,0,3,1
BRDA:193,0,0,1
BRDA:193,0,1,0
BRDA:213,0,0,1
BRDA:213,0,1,1
BRDA:213,0,2,1
BRDA:213,0,3,1
BRDA:213,0,4,1
BRDA:213,0,5,1
BRDA:214,0,0,1
BRDA:214,0,1,0
BRDA:214,0,2,1
BRDA:214,0,3,0
BRDA:214,0,4,1
BRDA:214,0,5,0
BRDA:217,0,0,1
BRDA:217,0,1,0
BRDA:217,0,2,1
BRDA:217,0,3,0
BRDA:217,0,4,1
BRDA:217,0,5,0
BRDA:217,0,6,1
BRDA:217,0,7,0
BRDA:217,0,8,1
BRDA:217,0,9,0
BRDA:217,0,10,1
BRDA:217,0,11,0
BRF:48
BRH:28
DA:35,0
DA:36,0
DA:58,24
DA:59,24
DA:61,48
DA:62,48
DA:64,46
DA:65,46
DA:77,16
DA:78,8
DA:79,24
DA:81,8
DA:82,8
DA:84,8
DA:85,8
DA:109,8
DA:110,8
DA:111,8
DA:112,8
DA:113,0
DA:122,3
DA:124,3
DA:125,3
DA:126,3
DA:130,7
DA:131,7
DA:132,7
DA:139,3
DA:140,3
DA:141,3
DA:144,7
DA:145,7
DA:146,7
DA:147,7
DA:151,6
DA:152,3
DA:153,3
DA:154,6
DA:156,28
DA:157,28
DA:160,28
DA:161,28
DA:162,0
DA:164,28
DA:165,28
DA:166,10
DA:167,10
DA:168,28
DA:169,28
DA:184,1
DA:185,1
DA:188,2
DA:189,2
DA:192,1
DA:193,1
DA:194,0
DA:207,28
DA:210,28
DA:213,28
DA:214,3
DA:215,3
DA:216,3
DA:217,3
DA:218,3
DA:219,3
DA:221,28
DA:222,28
DA:223,0
LF:68
LH:62
end_of_record
TN:
SF:/Users/acuoci/Downloads/cpp-github-tutorial/build/_deps/catch2-src/src/catch2/generators/catch_generators_adapters.hpp
FN:21,_ZN5Catch10Generators13TakeGeneratorIdED0Ev
FN:21,_ZN5Catch10Generators13TakeGeneratorIdED1Ev
FN:21,_ZN5Catch10Generators13TakeGeneratorIdED2Ev
FN:26,_ZN5Catch10Generators13TakeGeneratorIdEC1EmONS0_16GeneratorWrapperIdEE
FN:26,_ZN5Catch10Generators13TakeGeneratorIdEC2EmONS0_16GeneratorWrapperIdEE
FN:32,_ZNK5Catch10Generators13TakeGeneratorIdE3getEv
FN:35,_ZN5Catch10Generators13TakeGeneratorIdE4nextEv
FN:52,_ZN5Catch10Generators4takeIdEENS0_16GeneratorWrapperIT_EEmOS4_
FNDA:2,_ZN5Catch10Generators13TakeGeneratorIdED0Ev
FNDA:2,_ZN5Catch10Generators13TakeGeneratorIdED1Ev
FNDA:2,_ZN5Catch10Generators13TakeGeneratorIdED2Ev
FNDA:2,_ZN5Catch10Generators13TakeGeneratorIdEC1EmONS0_16GeneratorWrapperIdEE
FNDA:2,_ZN5Catch10Generators13TakeGeneratorIdEC2EmONS0_16GeneratorWrapperIdEE
FNDA:20,_ZNK5Catch10Generators13TakeGeneratorIdE3getEv
FNDA:20,_ZN5Catch10Generators13TakeGeneratorIdE4nextEv
FNDA:2,_ZN5Catch10Generators4takeIdEENS0_16GeneratorWrapperIT_EEmOS4_
FNF:8
FNH:8
BRDA:30,0,0,0
BRDA:30,0,1,1
BRDA:30,0,2,1
BRDA:30,0,3,0
BRDA:30,0,4,-
BRDA:30,0,5,-
BRDA:37,0,0,1
BRDA:37,0,1,1
BRDA:44,0,0,1
BRDA:44,0,1,0
BRDA:53,0,0,1
BRDA:53,0,1,0
BRDA:53,0,2,1
BRDA:53,0,3,0
BRF:14
BRH:7
DA:23,2
DA:26,4
DA:27,2
DA:28,2
DA:29,4
DA:30,4
DA:31,4
DA:32,20
DA:33,20
DA:35,20
DA:36,20
DA:37,20
DA:38,2
DA:41,18
DA:44,18
DA:45,0
DA:46,0
DA:47,18
DA:48,20
DA:52,2
DA:53,2
DA:54,0
LF:22
LH:19
end_of_record
TN:
SF:/Users/acuoci/Downloads/cpp-github-tutorial/build/_deps/catch2-src/src/catch2/generators/catch_generators_random.hpp
FN:27,_ZN5Catch10Generators23RandomFloatingGeneratorIdED0Ev
FN:27,_ZN5Catch10Generators23RandomFloatingGeneratorIdED1Ev
FN:27,_ZN5Catch10Generators23RandomFloatingGeneratorIdED2Ev
FN:32,_ZN5Catch10Generators23RandomFloatingGeneratorIdEC1Eddj
FN:32,_ZN5Catch10Generators23RandomFloatingGeneratorIdEC2Eddj
FN:38,_ZNK5Catch10Generators23RandomFloatingGeneratorIdE3getEv
FN:41,_ZN5Catch10Generators23RandomFloatingGeneratorIdE4nextEv
FN:96,_ZN5Catch10Generators6randomIdEENSt3__19enable_ifIXsr3std17is_floating_pointIT_EE5valueENS0_16GeneratorWrapperIS4_EEE4typeES4_S4_
FNDA:2,_ZN5Catch10Generators23RandomFloatingGeneratorIdED0Ev
FNDA:2,_ZN5Catch10Generators23RandomFloatingGeneratorIdED1Ev
FNDA:2,_ZN5Catch10Generators23RandomFloatingGeneratorIdED2Ev
FNDA:2,_ZN5Catch10Generators23RandomFloatingGeneratorIdEC1Eddj
FNDA:2,_ZN5Catch10Generators23RandomFloatingGeneratorIdEC2Eddj
FNDA:20,_ZNK5Catch10Generators23RandomFloatingGeneratorIdE3getEv
FNDA:20,_ZN5Catch10Generators23RandomFloatingGeneratorIdE4nextEv
FNDA:2,_ZN5Catch10Generators6randomIdEENSt3__19enable_ifIXsr3std17is_floating_pointIT_EE5valueENS0_16GeneratorWrapperIS4_EEE4typeES4_S4_
FNF:8
FNH:8
BRDA:33,0,0,1
BRDA:33,0,1,0
BRDA:34,0,0,1
BRDA:34,0,1,0
BRDA:35,0,0,1
BRDA:35,0,1,0
BRDA:97,0,0,1
BRDA:97,0,1,0
BRDA:98,0,0,1
BRDA:98,0,1,0
BRF:10
BRH:5
DA:32,4
DA:33,2
DA:34,4
DA:35,2
DA:36,4
DA:38,20
DA:39,20
DA:41,20
DA:42,20
DA:43,20
DA:96,2
DA:97,2
DA:98,2
DA:100,0
LF:14
LH:13
end_of_record
TN:
SF:/Users/acuoci/Downloads/cpp-github-tutorial/build/_deps/catch2-src/src/catch2/interfaces/catch_interfaces_generatortracker.hpp
FN:39,39,_ZN5Catch10Generators20GeneratorUntypedBaseC2Ev
FN:42,42,_ZN5Catch10Generators20GeneratorUntypedBaseC2ERKS1_
FNDA:15,_ZN5Catch10Generators20GeneratorUntypedBaseC2Ev
FNDA:3,_ZN5Catch10Generators20GeneratorUntypedBaseC2ERKS1_
FNF:2
FNH:2
DA:25,15
DA:39,30
DA:42,3
LF:3
LH:3
end_of_record
TN:
SF:/Users/acuoci/Downloads/cpp-github-tutorial/build/_deps/catch2-src/src/catch2/internal/catch_assertion_handler.hpp
FN:37,41,_ZN5Catch16AssertionHandlerD1Ev
FN:37,41,_ZN5Catch16AssertionHandlerD2Ev
FN:45,47,_ZN5Catch16AssertionHandler10handleExprIbEEvRKNS_7ExprLhsIT_EE
FNDA:58,_ZN5Catch16AssertionHandlerD1Ev
FNDA:58,_ZN5Catch16AssertionHandlerD2Ev
FNDA:1,_ZN5Catch16AssertionHandler10handleExprIbEEvRKNS_7ExprLhsIT_EE
FNF:3
FNH:3
BRDA:38,0,0,1
BRDA:38,0,1,0
BRDA:39,0,0,-
BRDA:39,0,1,-
BRDA:46,0,0,1
BRDA:46,0,1,0
BRF:6
BRH:2
DA:37,116
DA:38,58
DA:39,0
DA:40,0
DA:41,116
DA:45,1
DA:46,1
DA:47,1
LF:8
LH:6
end_of_record
TN:
SF:/Users/acuoci/Downloads/cpp-github-tutorial/build/_deps/catch2-src/src/catch2/internal/catch_decomposer.hpp
FN:149,_ZN5Catch9UnaryExprIbED0Ev
FN:149,_ZN5Catch9UnaryExprIbED1Ev
FN:149,_ZN5Catch9UnaryExprIbED2Ev
FN:152,154,_ZNK5Catch9UnaryExprIbE29streamReconstructedExpressionERNSt3__113basic_ostreamIcNS2_11char_traitsIcEEEE
FN:157,160,_ZN5Catch9UnaryExprIbEC1Eb
FN:157,160,_ZN5Catch9UnaryExprIbEC2Eb
FN:168,168,_ZN5Catch7ExprLhsIbEC1Eb
FN:168,168,_ZN5Catch7ExprLhsIbEC2Eb
FN:168,168,_ZN5Catch7ExprLhsIdEC1Ed
FN:168,168,_ZN5Catch7ExprLhsIdEC2Ed
FN:218,218,_ZN5CatcheqINS_6ApproxEEENSt3__19enable_ifIXsr6Detail11conjunctionINS_6Detail16is_eq_comparableIdT_vEENS2_8negationINS2_13is_arithmeticIu20__remove_reference_tIS6_EEEEEEE5valueENS_10BinaryExprIdRKS6_EEE4typeEONS_7ExprLhsIdEEOS6_
FN:218,218,_ZN5CatcheqIRNS_6ApproxEEENSt3__19enable_ifIXsr6Detail11conjunctionINS_6Detail16is_eq_comparableIdT_vEENS3_8negationINS3_13is_arithmeticIu20__remove_reference_tIS7_EEEEEEE5valueENS_10BinaryExprIdRKS7_EEE4typeEONS_7ExprLhsIdEEOS7_
FN:218,218,_ZN5CatcheqIdEENSt3__19enable_ifIXsr6Detail11conjunctionINS_6Detail16is_eq_comparableIdT_vEENS1_13is_arithmeticIS5_EEEE5valueENS_10BinaryExprIdS5_EEE4typeEONS_7ExprLhsIdEES5_
FN:312,313,_ZNK5Catch7ExprLhsIbE13makeUnaryExprEv
FN:324,325,_ZN5CatchleIbLi0EEENS_7ExprLhsIT_EEONS_10DecomposerES2_
FN:324,325,_ZN5CatchleIdLi0EEENS_7ExprLhsIT_EEONS_10DecomposerES2_
FN:51,54,_ZN5Catch20ITransientExpressionC2Ebb
FN:73,_ZN5Catch10BinaryExprIdRKNS_6ApproxEED0Ev
FN:73,_ZN5Catch10BinaryExprIdRKNS_6ApproxEED1Ev
FN:73,_ZN5Catch10BinaryExprIdRKNS_6ApproxEED2Ev
FN:73,_ZN5Catch10BinaryExprIdRNS_6ApproxEED0Ev
FN:73,_ZN5Catch10BinaryExprIdRNS_6ApproxEED1Ev
FN:73,_ZN5Catch10BinaryExprIdRNS_6ApproxEED2Ev
FN:73,_ZN5Catch10BinaryExprIddED0Ev
FN:73,_ZN5Catch10BinaryExprIddED1Ev
FN:73,_ZN5Catch10BinaryExprIddED2Ev
FN:78,81,_ZNK5Catch10BinaryExprIdRKNS_6ApproxEE29streamReconstructedExpressionERNSt3__113basic_ostreamIcNS5_11char_traitsIcEEEE
FN:78,81,_ZNK5Catch10BinaryExprIdRNS_6ApproxEE29streamReconstructedExpressionERNSt3__113basic_ostreamIcNS4_11char_traitsIcEEEE
FN:78,81,_ZNK5Catch10BinaryExprIddE29streamReconstructedExpressionERNSt3__113basic_ostreamIcNS2_11char_traitsIcEEEE
FN:84,89,_ZN5Catch10BinaryExprIdRKNS_6ApproxEEC1EbdNS_9StringRefES3_
FN:84,89,_ZN5Catch10BinaryExprIdRKNS_6ApproxEEC2EbdNS_9StringRefES3_
FN:84,89,_ZN5Catch10BinaryExprIdRNS_6ApproxEEC1EbdNS_9StringRefES2_
FN:84,89,_ZN5Catch10BinaryExprIdRNS_6ApproxEEC2EbdNS_9StringRefES2_
FN:84,89,_ZN5Catch10BinaryExprIddEC1EbdNS_9StringRefEd
FN:84,89,_ZN5Catch10BinaryExprIddEC2EbdNS_9StringRefEd
FNDA:0,_ZN5Catch9UnaryExprIbED0Ev
FNDA:1,_ZN5Catch9UnaryExprIbED1Ev
FNDA:1,_ZN5Catch9UnaryExprIbED2Ev
FNDA:0,_ZNK5Catch9UnaryExprIbE29streamReconstructedExpressionERNSt3__113basic_ostreamIcNS2_11char_traitsIcEEEE
FNDA:1,_ZN5Catch9UnaryExprIbEC1Eb
FNDA:1,_ZN5Catch9UnaryExprIbEC2Eb
FNDA:1,_ZN5Catch7ExprLhsIbEC1Eb
FNDA:1,_ZN5Catch7ExprLhsIbEC2Eb
FNDA:54,_ZN5Catch7ExprLhsIdEC1Ed
FNDA:54,_ZN5Catch7ExprLhsIdEC2Ed
FNDA:20,_ZN5CatcheqINS_6ApproxEEENSt3__19enable_ifIXsr6Detail11conjunctionINS_6Detail16is_eq_comparableIdT_vEENS2_8negationINS2_13is_arithmeticIu20__remove_reference_tIS6_EEEEEEE5valueENS_10BinaryExprIdRKS6_EEE4typeEONS_7ExprLhsIdEEOS6_
FNDA:5,_ZN5CatcheqIRNS_6ApproxEEENSt3__19enable_ifIXsr6Detail11conjunctionINS_6Detail16is_eq_comparableIdT_vEENS3_8negationINS3_13is_arithmeticIu20__remove_reference_tIS7_EEEEEEE5valueENS_10BinaryExprIdRKS7_EEE4typeEONS_7ExprLhsIdEEOS7_
FNDA:29,_ZN5CatcheqIdEENSt3__19enable_ifIXsr6Detail11conjunctionINS_6Detail16is_eq_comparableIdT_vEENS1_13is_arithmeticIS5_EEEE5valueENS_10BinaryExprIdS5_EEE4typeEONS_7ExprLhsIdEES5_
FNDA:1,_ZNK5Catch7ExprLhsIbE13makeUnaryExprEv
FNDA:1,_ZN5CatchleIbLi0EEENS_7ExprLhsIT_EEONS_10DecomposerES2_
FNDA:54,_ZN5CatchleIdLi0EEENS_7ExprLhsIT_EEONS_10DecomposerES2_
FNDA:55,_ZN5Catch20ITransientExpressionC2Ebb
FNDA:0,_ZN5Catch10BinaryExprIdRKNS_6ApproxEED0Ev
FNDA:20,_ZN5Catch10BinaryExprIdRKNS_6ApproxEED1Ev
FNDA:20,_ZN5Catch10BinaryExprIdRKNS_6ApproxEED2Ev
FNDA:0,_ZN5Catch10BinaryExprIdRNS_6ApproxEED0Ev
FNDA:5,_ZN5Catch10BinaryExprIdRNS_6ApproxEED1Ev
FNDA:5,_ZN5Catch10BinaryExprIdRNS_6ApproxEED2Ev
FNDA:0,_ZN5Catch10BinaryExprIddED0Ev
FNDA:29,_ZN5Catch10BinaryExprIddED1Ev
FNDA:29,_ZN5Catch10BinaryExprIddED2Ev
FNDA:0,_ZNK5Catch10BinaryExprIdRKNS_6ApproxEE29streamReconstructedExpressionERNSt3__113basic_ostreamIcNS5_11char_traitsIcEEEE
FNDA:0,_ZNK5Catch10BinaryExprIdRNS_6ApproxEE29streamReconstructedExpressionERNSt3__113basic_ostreamIcNS4_11char_traitsIcEEEE
FNDA:0,_ZNK5Catch10BinaryExprIddE29streamReconstructedExpressionERNSt3__113basic_ostreamIcNS2_11char_traitsIcEEEE
FNDA:20,_ZN5Catch10BinaryExprIdRKNS_6ApproxEEC1EbdNS_9StringRefES3_
FNDA:20,_ZN5Catch10BinaryExprIdRKNS_6ApproxEEC2EbdNS_9StringRefES3_
FNDA:5,_ZN5Catch10BinaryExprIdRNS_6ApproxEEC1EbdNS_9StringRefES2_
FNDA:5,_ZN5Catch10BinaryExprIdRNS_6ApproxEEC2EbdNS_9StringRefES2_
FNDA:29,_ZN5Catch10BinaryExprIddEC1EbdNS_9StringRefEd
FNDA:29,_ZN5Catch10BinaryExprIddEC2EbdNS_9StringRefEd
FNF:35
FNH:27
BRDA:79,0,0,-
BRDA:79,0,1,-
BRDA:79,1,0,-
BRDA:79,1,1,-
BRDA:79,1,2,-
BRDA:79,1,3,-
BRDA:79,1,4,-
BRDA:79,1,5,-
BRDA:80,0,0,-
BRDA:80,0,1,-
BRDA:80,1,0,-
BRDA:80,1,1,-
BRDA:80,1,2,-
BRDA:80,1,3,-
BRDA:80,1,4,-
BRDA:80,1,5,-
BRDA:153,0,0,-
BRDA:153,0,1,-
BRF:18
BRH:0
DA:51,55
DA:52,55
DA:53,55
DA:54,110
DA:78,0
DA:79,0
DA:80,0
DA:81,0
DA:84,108
DA:85,54
DA:86,54
DA:87,54
DA:88,54
DA:89,162
DA:152,0
DA:153,0
DA:154,0
DA:157,2
DA:158,1
DA:159,1
DA:160,3
DA:168,110
DA:218,54
DA:312,1
DA:313,1
DA:324,55
DA:325,55
LF:27
LH:20
end_of_record
TN:
SF:/Users/acuoci/Downloads/cpp-github-tutorial/build/_deps/catch2-src/src/catch2/internal/catch_random_floating_point_helpers.hpp
FN:29,39,_ZN5Catch6Detail5gammaIdEET_S2_S2_
FN:71,84,_ZN5Catch6Detail24count_equidistant_floatsIdEENS0_18DistanceTypePickerIT_E4typeES3_S3_S3_
FNDA:2,_ZN5Catch6Detail5gammaIdEET_S2_S2_
FNDA:2,_ZN5Catch6Detail24count_equidistant_floatsIdEENS0_18DistanceTypePickerIT_E4typeES3_S3_S3_
FNF:2
FNH:2
BRDA:34,0,0,1
BRDA:34,0,1,0
BRDA:39,0,0,0
BRDA:39,0,1,1
BRDA:72,0,0,1
BRDA:72,0,1,0
BRDA:79,0,0,1
BRDA:79,0,1,0
BRDA:84,0,0,0
BRDA:84,0,1,1
BRF:10
BRH:5
DA:29,2
DA:34,2
DA:36,2
DA:37,2
DA:39,2
DA:71,2
DA:72,2
DA:75,2
DA:76,2
DA:78,2
DA:79,2
DA:80,2
DA:81,0
DA:82,2
DA:84,2
LF:15
LH:14
end_of_record
TN:
SF:/Users/acuoci/Downloads/cpp-github-tutorial/build/_deps/catch2-src/src/catch2/internal/catch_random_integer_helpers.hpp
FN:141,159,_ZN5Catch6Detail12fillBitsFromIyNS_11SimplePcg32EEENSt3__19enable_ifIXltstNT0_11result_typeEstT_ES7_E4typeERS5_
FN:191,197,_ZN5Catch6Detail23transposeToNaturalOrderIyyEENSt3__19enable_ifIXsr3std11is_unsignedIT_EE5valueET0_E4typeES5_
FN:52,99,_ZN5Catch6Detail12extendedMultEyy
FNDA:20,_ZN5Catch6Detail12fillBitsFromIyNS_11SimplePcg32EEENSt3__19enable_ifIXltstNT0_11result_typeEstT_ES7_E4typeERS5_
FNDA:26,_ZN5Catch6Detail23transposeToNaturalOrderIyyEENSt3__19enable_ifIXsr3std11is_unsignedIT_EE5valueET0_E4typeES5_
FNDA:20,_ZN5Catch6Detail12extendedMultEyy
FNF:3
FNH:3
BRDA:157,0,0,1
BRDA:157,0,1,1
BRF:2
BRH:2
DA:52,20
DA:73,20
DA:74,20
DA:75,20
DA:76,20
DA:79,20
DA:80,20
DA:81,20
DA:82,20
DA:85,20
DA:86,20
DA:87,20
DA:90,20
DA:91,20
DA:92,20
DA:97,60
DA:98,20
DA:99,20
DA:141,20
DA:149,20
DA:150,20
DA:151,20
DA:152,20
DA:153,20
DA:154,40
DA:155,40
DA:156,40
DA:157,40
DA:159,20
DA:191,26
DA:197,26
LF:31
LH:31
end_of_record
TN:
SF:/Users/acuoci/Downloads/cpp-github-tutorial/build/_deps/catch2-src/src/catch2/internal/catch_reusable_string_stream.hpp
FN:45,47,_ZN5Catch20ReusableStringStreamlsIA27_cEERS0_RKT_
FNDA:1,_ZN5Catch20ReusableStringStreamlsIA27_cEERS0_RKT_
FNF:1
FNH:1
DA:45,1
DA:46,1
DA:47,1
LF:3
LH:3
end_of_record
TN:
SF:/Users/acuoci/Downloads/cpp-github-tutorial/build/_deps/catch2-src/src/catch2/internal/catch_source_line_info.hpp
FN:19,22,_ZN5Catch14SourceLineInfoC1EPKcm
FN:19,22,_ZN5Catch14SourceLineInfoC2EPKcm
FNDA:324,_ZN5Catch14SourceLineInfoC1EPKcm
FNDA:324,_ZN5Catch14SourceLineInfoC2EPKcm
FNF:2
FNH:2
DA:19,648
DA:20,324
DA:21,324
DA:22,648
LF:4
LH:4
end_of_record
TN:
SF:/Users/acuoci/Downloads/cpp-github-tutorial/build/_deps/catch2-src/src/catch2/internal/catch_stream_end_stop.hpp
FN:23,24,_ZN5CatchplIA27_cEERKT_S4_NS_13StreamEndStopE
FNDA:1,_ZN5CatchplIA27_cEERKT_S4_NS_13StreamEndStopE
FNF:1
FNH:1
DA:23,1
DA:24,1
LF:2
LH:2
end_of_record
TN:
SF:/Users/acuoci/Downloads/cpp-github-tutorial/build/_deps/catch2-src/src/catch2/internal/catch_stringref.hpp
FN:114,115,_ZN5Catchli3_srEPKcm
FN:119,120,_Zli9_catch_srPKcm
FN:37,37,_ZN5Catch9StringRefC1Ev
FN:37,37,_ZN5Catch9StringRefC2Ev
FN:41,44,_ZN5Catch9StringRefC1EPKcm
FN:41,44,_ZN5Catch9StringRefC2EPKcm
FN:46,49,_ZN5Catch9StringRefC1ERKNSt3__112basic_stringIcNS1_11char_traitsIcEENS1_9allocatorIcEEEE
FN:46,49,_ZN5Catch9StringRefC2ERKNSt3__112basic_stringIcNS1_11char_traitsIcEENS1_9allocatorIcEEEE
FNDA:1735,_ZN5Catchli3_srEPKcm
FNDA:143,_Zli9_catch_srPKcm
FNDA:772,_ZN5Catch9StringRefC1Ev
FNDA:772,_ZN5Catch9StringRefC2Ev
FNDA:3858,_ZN5Catch9StringRefC1EPKcm
FNDA:3858,_ZN5Catch9StringRefC2EPKcm
FNDA:1148,_ZN5Catch9StringRefC1ERKNSt3__112basic_stringIcNS1_11char_traitsIcEENS1_9allocatorIcEEEE
FNDA:1148,_ZN5Catch9StringRefC2ERKNSt3__112basic_stringIcNS1_11char_traitsIcEENS1_9allocatorIcEEEE
FNF:8
FNH:8
DA:33,772
DA:34,772
DA:37,2316
DA:41,7716
DA:42,3858
DA:43,3858
DA:44,7716
DA:46,2296
DA:47,1148
DA:48,1148
DA:49,2296
DA:114,1735
DA:115,1735
DA:119,143
DA:120,143
LF:15
LH:15
end_of_record
TN:
SF:/Users/acuoci/Downloads/cpp-github-tutorial/build/_deps/catch2-src/src/catch2/internal/catch_test_registry.hpp
FN:51,53,_ZN5Catch11NameAndTagsC1ENS_9StringRefES1_
FN:51,53,_ZN5Catch11NameAndTagsC2ENS_9StringRefES1_
FNDA:90,_ZN5Catch11NameAndTagsC1ENS_9StringRefES1_
FNDA:90,_ZN5Catch11NameAndTagsC2ENS_9StringRefES1_
FNF:2
FNH:2
DA:51,180
DA:53,180
LF:2
LH:2
end_of_record
TN:
SF:/Users/acuoci/Downloads/cpp-github-tutorial/build/_deps/catch2-src/src/catch2/internal/catch_uniform_floating_point_distribution.hpp
FN:104,123,_ZN5Catch35uniform_floating_point_distributionIdEclINS_11SimplePcg32EEEdRT_
FN:29,32,_ZN5Catch6Detail29calculate_max_steps_in_one_goEd
FN:91,101,_ZN5Catch35uniform_floating_point_distributionIdEC1Edd
FN:91,101,_ZN5Catch35uniform_floating_point_distributionIdEC2Edd
FNDA:20,_ZN5Catch35uniform_floating_point_distributionIdEclINS_11SimplePcg32EEEdRT_
FNDA:2,_ZN5Catch6Detail29calculate_max_steps_in_one_goEd
FNDA:2,_ZN5Catch35uniform_floating_point_distributionIdEC1Edd
FNDA:2,_ZN5Catch35uniform_floating_point_distributionIdEC2Edd
FNF:4
FNH:4
BRDA:30,0,0,0
BRDA:30,0,1,1
BRDA:100,0,0,1
BRDA:100,0,1,0
BRDA:106,0,0,1
BRDA:106,0,1,0
BRDA:107,0,0,0
BRDA:107,0,1,1
BRDA:109,0,0,0
BRDA:109,0,1,1
BRDA:115,0,0,-
BRDA:115,0,1,-
BRDA:117,0,0,-
BRDA:117,0,1,-
BRF:14
BRH:5
DA:29,2
DA:30,2
DA:31,2
DA:32,2
DA:91,4
DA:92,2
DA:93,2
DA:94,2
DA:95,2
DA:96,2
DA:97,2
DA:98,2
DA:99,2
DA:100,2
DA:101,4
DA:104,20
DA:105,20
DA:106,20
DA:107,20
DA:108,20
DA:109,20
DA:110,0
DA:111,0
DA:113,20
DA:115,0
DA:116,0
DA:117,0
DA:118,0
DA:119,0
DA:121,0
DA:123,20
LF:31
LH:23
end_of_record
TN:
SF:/Users/acuoci/Downloads/cpp-github-tutorial/build/_deps/catch2-src/src/catch2/internal/catch_uniform_integer_distribution.hpp
FN:100,116,_ZN5Catch28uniform_integer_distributionIyEclINS_11SimplePcg32EEEyRT_
FN:67,70,_ZNK5Catch28uniform_integer_distributionIyE15computeDistanceEyy
FN:73,78,_ZN5Catch28uniform_integer_distributionIyE25computeRejectionThresholdEy
FN:80,82,_ZN5Catch28uniform_integer_distributionIyE11transposeToEy
FN:84,86,_ZN5Catch28uniform_integer_distributionIyE13transposeBackEy
FN:92,97,_ZN5Catch28uniform_integer_distributionIyEC1Eyy
FN:92,97,_ZN5Catch28uniform_integer_distributionIyEC2Eyy
FNDA:20,_ZN5Catch28uniform_integer_distributionIyEclINS_11SimplePcg32EEEyRT_
FNDA:2,_ZNK5Catch28uniform_integer_distributionIyE15computeDistanceEyy
FNDA:2,_ZN5Catch28uniform_integer_distributionIyE25computeRejectionThresholdEy
FNDA:6,_ZN5Catch28uniform_integer_distributionIyE11transposeToEy
FNDA:20,_ZN5Catch28uniform_integer_distributionIyE13transposeBackEy
FNDA:2,_ZN5Catch28uniform_integer_distributionIyEC1Eyy
FNDA:2,_ZN5Catch28uniform_integer_distributionIyEC2Eyy
FNF:7
FNH:7
BRDA:76,0,0,1
BRDA:76,0,1,0
BRDA:96,0,0,1
BRDA:96,0,1,0
BRDA:102,0,0,1
BRDA:102,0,1,0
BRDA:110,0,0,0
BRDA:110,0,1,1
BRF:8
BRH:4
DA:67,2
DA:70,2
DA:73,2
DA:76,2
DA:77,2
DA:78,2
DA:80,6
DA:81,6
DA:82,6
DA:84,20
DA:85,20
DA:86,20
DA:92,4
DA:93,2
DA:94,2
DA:95,4
DA:96,2
DA:97,4
DA:100,20
DA:102,20
DA:103,0
DA:106,20
DA:107,20
DA:110,20
DA:111,0
DA:112,0
DA:115,20
DA:116,20
LF:28
LH:25
end_of_record
TN:
SF:/Users/acuoci/Downloads/cpp-github-tutorial/build/_deps/catch2-src/src/catch2/internal/catch_unique_ptr.hpp
FN:110,112,_ZN5Catch6Detail11make_uniqueINS_10Generators10GeneratorsIdEEJS4_EEENS0_10unique_ptrIT_EEDpOT0_
FN:110,112,_ZN5Catch6Detail11make_uniqueINS_10Generators10GeneratorsIiEEJS4_EEENS0_10unique_ptrIT_EEDpOT0_
FN:110,112,_ZN5Catch6Detail11make_uniqueINS_10Generators13TakeGeneratorIdEEJRmNS2_16GeneratorWrapperIdEEEEENS0_10unique_ptrIT_EEDpOT0_
FN:110,112,_ZN5Catch6Detail11make_uniqueINS_10Generators20SingleValueGeneratorIiEEJiEEENS0_10unique_ptrIT_EEDpOT0_
FN:110,112,_ZN5Catch6Detail11make_uniqueINS_10Generators23RandomFloatingGeneratorIdEEJRdS5_jEEENS0_10unique_ptrIT_EEDpOT0_
FN:30,32,_ZN5Catch6Detail10unique_ptrINS_10Generators10GeneratorsIdEEEC1EPS4_
FN:30,32,_ZN5Catch6Detail10unique_ptrINS_10Generators10GeneratorsIdEEEC2EPS4_
FN:30,32,_ZN5Catch6Detail10unique_ptrINS_10Generators10GeneratorsIiEEEC1EPS4_
FN:30,32,_ZN5Catch6Detail10unique_ptrINS_10Generators10GeneratorsIiEEEC2EPS4_
FN:30,32,_ZN5Catch6Detail10unique_ptrINS_10Generators13TakeGeneratorIdEEEC1EPS4_
FN:30,32,_ZN5Catch6Detail10unique_ptrINS_10Generators13TakeGeneratorIdEEEC2EPS4_
FN:30,32,_ZN5Catch6Detail10unique_ptrINS_10Generators20SingleValueGeneratorIiEEEC1EPS4_
FN:30,32,_ZN5Catch6Detail10unique_ptrINS_10Generators20SingleValueGeneratorIiEEEC2EPS4_
FN:30,32,_ZN5Catch6Detail10unique_ptrINS_10Generators23RandomFloatingGeneratorIdEEEC1EPS4_
FN:30,32,_ZN5Catch6Detail10unique_ptrINS_10Generators23RandomFloatingGeneratorIdEEEC2EPS4_
FN:35,37,_ZN5Catch6Detail10unique_ptrINS_10Generators10IGeneratorIdEEEC1INS2_13TakeGeneratorIdEEvEEONS1_IT_EE
FN:35,37,_ZN5Catch6Detail10unique_ptrINS_10Generators10IGeneratorIdEEEC1INS2_23RandomFloatingGeneratorIdEEvEEONS1_IT_EE
FN:35,37,_ZN5Catch6Detail10unique_ptrINS_10Generators10IGeneratorIdEEEC2INS2_13TakeGeneratorIdEEvEEONS1_IT_EE
FN:35,37,_ZN5Catch6Detail10unique_ptrINS_10Generators10IGeneratorIdEEEC2INS2_23RandomFloatingGeneratorIdEEvEEONS1_IT_EE
FN:35,37,_ZN5Catch6Detail10unique_ptrINS_10Generators10IGeneratorIiEEEC1INS2_20SingleValueGeneratorIiEEvEEONS1_IT_EE
FN:35,37,_ZN5Catch6Detail10unique_ptrINS_10Generators10IGeneratorIiEEEC2INS2_20SingleValueGeneratorIiEEvEEONS1_IT_EE
FN:35,37,_ZN5Catch6Detail10unique_ptrINS_10Generators20GeneratorUntypedBaseEEC1INS2_10GeneratorsIdEEvEEONS1_IT_EE
FN:35,37,_ZN5Catch6Detail10unique_ptrINS_10Generators20GeneratorUntypedBaseEEC1INS2_10GeneratorsIiEEvEEONS1_IT_EE
FN:35,37,_ZN5Catch6Detail10unique_ptrINS_10Generators20GeneratorUntypedBaseEEC2INS2_10GeneratorsIdEEvEEONS1_IT_EE
FN:35,37,_ZN5Catch6Detail10unique_ptrINS_10Generators20GeneratorUntypedBaseEEC2INS2_10GeneratorsIiEEvEEONS1_IT_EE
FN:49,52,_ZN5Catch6Detail10unique_ptrINS_10Generators10IGeneratorIdEEEC1EOS5_
FN:49,52,_ZN5Catch6Detail10unique_ptrINS_10Generators10IGeneratorIdEEEC2EOS5_
FN:49,52,_ZN5Catch6Detail10unique_ptrINS_10Generators10IGeneratorIiEEEC1EOS5_
FN:49,52,_ZN5Catch6Detail10unique_ptrINS_10Generators10IGeneratorIiEEEC2EOS5_
FN:59,61,_ZN5Catch6Detail10unique_ptrINS_10Generators10GeneratorsIdEEED1Ev
FN:59,61,_ZN5Catch6Detail10unique_ptrINS_10Generators10GeneratorsIdEEED2Ev
FN:59,61,_ZN5Catch6Detail10unique_ptrINS_10Generators10GeneratorsIiEEED1Ev
FN:59,61,_ZN5Catch6Detail10unique_ptrINS_10Generators10GeneratorsIiEEED2Ev
FN:59,61,_ZN5Catch6Detail10unique_ptrINS_10Generators10IGeneratorIdEEED1Ev
FN:59,61,_ZN5Catch6Detail10unique_ptrINS_10Generators10IGeneratorIdEEED2Ev
FN:59,61,_ZN5Catch6Detail10unique_ptrINS_10Generators10IGeneratorIiEEED1Ev
FN:59,61,_ZN5Catch6Detail10unique_ptrINS_10Generators10IGeneratorIiEEED2Ev
FN:59,61,_ZN5Catch6Detail10unique_ptrINS_10Generators13TakeGeneratorIdEEED1Ev
FN:59,61,_ZN5Catch6Detail10unique_ptrINS_10Generators13TakeGeneratorIdEEED2Ev
FN:59,61,_ZN5Catch6Detail10unique_ptrINS_10Generators20GeneratorUntypedBaseEED1Ev
FN:59,61,_ZN5Catch6Detail10unique_ptrINS_10Generators20GeneratorUntypedBaseEED2Ev
FN:59,61,_ZN5Catch6Detail10unique_ptrINS_10Generators20SingleValueGeneratorIiEEED1Ev
FN:59,61,_ZN5Catch6Detail10unique_ptrINS_10Generators20SingleValueGeneratorIiEEED2Ev
FN:59,61,_ZN5Catch6Detail10unique_ptrINS_10Generators23RandomFloatingGeneratorIdEEED1Ev
FN:59,61,_ZN5Catch6Detail10unique_ptrINS_10Generators23RandomFloatingGeneratorIdEEED2Ev
FN:59,61,_ZN5Catch6Detail10unique_ptrINS_12ITestInvokerEED1Ev
FN:59,61,_ZN5Catch6Detail10unique_ptrINS_12ITestInvokerEED2Ev
FN:67,69,_ZNK5Catch6Detail10unique_ptrINS_10Generators20GeneratorUntypedBaseEEdeEv
FN:71,73,_ZN5Catch6Detail10unique_ptrINS_10Generators10IGeneratorIdEEEptEv
FN:71,73,_ZN5Catch6Detail10unique_ptrINS_10Generators10IGeneratorIiEEEptEv
FN:75,77,_ZNK5Catch6Detail10unique_ptrINS_10Generators10IGeneratorIdEEEptEv
FN:75,77,_ZNK5Catch6Detail10unique_ptrINS_10Generators10IGeneratorIiEEEptEv
FN:88,91,_ZN5Catch6Detail10unique_ptrINS_10Generators10GeneratorsIdEEE7releaseEv
FN:88,91,_ZN5Catch6Detail10unique_ptrINS_10Generators10GeneratorsIiEEE7releaseEv
FN:88,91,_ZN5Catch6Detail10unique_ptrINS_10Generators13TakeGeneratorIdEEE7releaseEv
FN:88,91,_ZN5Catch6Detail10unique_ptrINS_10Generators20SingleValueGeneratorIiEEE7releaseEv
FN:88,91,_ZN5Catch6Detail10unique_ptrINS_10Generators23RandomFloatingGeneratorIdEEE7releaseEv
FNDA:2,_ZN5Catch6Detail11make_uniqueINS_10Generators10GeneratorsIdEEJS4_EEENS0_10unique_ptrIT_EEDpOT0_
FNDA:1,_ZN5Catch6Detail11make_uniqueINS_10Generators10GeneratorsIiEEJS4_EEENS0_10unique_ptrIT_EEDpOT0_
FNDA:2,_ZN5Catch6Detail11make_uniqueINS_10Generators13TakeGeneratorIdEEJRmNS2_16GeneratorWrapperIdEEEEENS0_10unique_ptrIT_EEDpOT0_
FNDA:8,_ZN5Catch6Detail11make_uniqueINS_10Generators20SingleValueGeneratorIiEEJiEEENS0_10unique_ptrIT_EEDpOT0_
FNDA:2,_ZN5Catch6Detail11make_uniqueINS_10Generators23RandomFloatingGeneratorIdEEJRdS5_jEEENS0_10unique_ptrIT_EEDpOT0_
FNDA:2,_ZN5Catch6Detail10unique_ptrINS_10Generators10GeneratorsIdEEEC1EPS4_
FNDA:2,_ZN5Catch6Detail10unique_ptrINS_10Generators10GeneratorsIdEEEC2EPS4_
FNDA:1,_ZN5Catch6Detail10unique_ptrINS_10Generators10GeneratorsIiEEEC1EPS4_
FNDA:1,_ZN5Catch6Detail10unique_ptrINS_10Generators10GeneratorsIiEEEC2EPS4_
FNDA:2,_ZN5Catch6Detail10unique_ptrINS_10Generators13TakeGeneratorIdEEEC1EPS4_
FNDA:2,_ZN5Catch6Detail10unique_ptrINS_10Generators13TakeGeneratorIdEEEC2EPS4_
FNDA:8,_ZN5Catch6Detail10unique_ptrINS_10Generators20SingleValueGeneratorIiEEEC1EPS4_
FNDA:8,_ZN5Catch6Detail10unique_ptrINS_10Generators20SingleValueGeneratorIiEEEC2EPS4_
FNDA:2,_ZN5Catch6Detail10unique_ptrINS_10Generators23RandomFloatingGeneratorIdEEEC1EPS4_
FNDA:2,_ZN5Catch6Detail10unique_ptrINS_10Generators23RandomFloatingGeneratorIdEEEC2EPS4_
FNDA:2,_ZN5Catch6Detail10unique_ptrINS_10Generators10IGeneratorIdEEEC1INS2_13TakeGeneratorIdEEvEEONS1_IT_EE
FNDA:2,_ZN5Catch6Detail10unique_ptrINS_10Generators10IGeneratorIdEEEC1INS2_23RandomFloatingGeneratorIdEEvEEONS1_IT_EE
FNDA:2,_ZN5Catch6Detail10unique_ptrINS_10Generators10IGeneratorIdEEEC2INS2_13TakeGeneratorIdEEvEEONS1_IT_EE
FNDA:2,_ZN5Catch6Detail10unique_ptrINS_10Generators10IGeneratorIdEEEC2INS2_23RandomFloatingGeneratorIdEEvEEONS1_IT_EE
FNDA:8,_ZN5Catch6Detail10unique_ptrINS_10Generators10IGeneratorIiEEEC1INS2_20SingleValueGeneratorIiEEvEEONS1_IT_EE
FNDA:8,_ZN5Catch6Detail10unique_ptrINS_10Generators10IGeneratorIiEEEC2INS2_20SingleValueGeneratorIiEEvEEONS1_IT_EE
FNDA:2,_ZN5Catch6Detail10unique_ptrINS_10Generators20GeneratorUntypedBaseEEC1INS2_10GeneratorsIdEEvEEONS1_IT_EE
FNDA:1,_ZN5Catch6Detail10unique_ptrINS_10Generators20GeneratorUntypedBaseEEC1INS2_10GeneratorsIiEEvEEONS1_IT_EE
FNDA:2,_ZN5Catch6Detail10unique_ptrINS_10Generators20GeneratorUntypedBaseEEC2INS2_10GeneratorsIdEEvEEONS1_IT_EE
FNDA:1,_ZN5Catch6Detail10unique_ptrINS_10Generators20GeneratorUntypedBaseEEC2INS2_10GeneratorsIiEEvEEONS1_IT_EE
FNDA:8,_ZN5Catch6Detail10unique_ptrINS_10Generators10IGeneratorIdEEEC1EOS5_
FNDA:8,_ZN5Catch6Detail10unique_ptrINS_10Generators10IGeneratorIdEEEC2EOS5_
FNDA:16,_ZN5Catch6Detail10unique_ptrINS_10Generators10IGeneratorIiEEEC1EOS5_
FNDA:16,_ZN5Catch6Detail10unique_ptrINS_10Generators10IGeneratorIiEEEC2EOS5_
FNDA:2,_ZN5Catch6Detail10unique_ptrINS_10Generators10GeneratorsIdEEED1Ev
FNDA:2,_ZN5Catch6Detail10unique_ptrINS_10Generators10GeneratorsIdEEED2Ev
FNDA:1,_ZN5Catch6Detail10unique_ptrINS_10Generators10GeneratorsIiEEED1Ev
FNDA:1,_ZN5Catch6Detail10unique_ptrINS_10Generators10GeneratorsIiEEED2Ev
FNDA:12,_ZN5Catch6Detail10unique_ptrINS_10Generators10IGeneratorIdEEED1Ev
FNDA:12,_ZN5Catch6Detail10unique_ptrINS_10Generators10IGeneratorIdEEED2Ev
FNDA:24,_ZN5Catch6Detail10unique_ptrINS_10Generators10IGeneratorIiEEED1Ev
FNDA:24,_ZN5Catch6Detail10unique_ptrINS_10Generators10IGeneratorIiEEED2Ev
FNDA:2,_ZN5Catch6Detail10unique_ptrINS_10Generators13TakeGeneratorIdEEED1Ev
FNDA:2,_ZN5Catch6Detail10unique_ptrINS_10Generators13TakeGeneratorIdEEED2Ev
FNDA:6,_ZN5Catch6Detail10unique_ptrINS_10Generators20GeneratorUntypedBaseEED1Ev
FNDA:6,_ZN5Catch6Detail10unique_ptrINS_10Generators20GeneratorUntypedBaseEED2Ev
FNDA:8,_ZN5Catch6Detail10unique_ptrINS_10Generators20SingleValueGeneratorIiEEED1Ev
FNDA:8,_ZN5Catch6Detail10unique_ptrINS_10Generators20SingleValueGeneratorIiEEED2Ev
FNDA:2,_ZN5Catch6Detail10unique_ptrINS_10Generators23RandomFloatingGeneratorIdEEED1Ev
FNDA:2,_ZN5Catch6Detail10unique_ptrINS_10Generators23RandomFloatingGeneratorIdEEED2Ev
FNDA:420,_ZN5Catch6Detail10unique_ptrINS_12ITestInvokerEED1Ev
FNDA:420,_ZN5Catch6Detail10unique_ptrINS_12ITestInvokerEED2Ev
FNDA:28,_ZNK5Catch6Detail10unique_ptrINS_10Generators20GeneratorUntypedBaseEEdeEv
FNDA:38,_ZN5Catch6Detail10unique_ptrINS_10Generators10IGeneratorIdEEEptEv
FNDA:8,_ZN5Catch6Detail10unique_ptrINS_10Generators10IGeneratorIiEEEptEv
FNDA:40,_ZNK5Catch6Detail10unique_ptrINS_10Generators10IGeneratorIdEEEptEv
FNDA:8,_ZNK5Catch6Detail10unique_ptrINS_10Generators10IGeneratorIiEEEptEv
FNDA:2,_ZN5Catch6Detail10unique_ptrINS_10Generators10GeneratorsIdEEE7releaseEv
FNDA:1,_ZN5Catch6Detail10unique_ptrINS_10Generators10GeneratorsIiEEE7releaseEv
FNDA:2,_ZN5Catch6Detail10unique_ptrINS_10Generators13TakeGeneratorIdEEE7releaseEv
FNDA:8,_ZN5Catch6Detail10unique_ptrINS_10Generators20SingleValueGeneratorIiEEE7releaseEv
FNDA:2,_ZN5Catch6Detail10unique_ptrINS_10Generators23RandomFloatingGeneratorIdEEE7releaseEv
FNF:57
FNH:57
BRDA:60,0,0,1
BRDA:60,0,1,1
BRDA:60,1,0,1
BRDA:60,1,1,1
BRDA:60,1,2,1
BRDA:60,1,3,0
BRDA:60,1,4,1
BRDA:60,1,5,1
BRDA:60,1,6,1
BRDA:60,1,7,0
BRDA:60,1,8,1
BRDA:60,1,9,1
BRDA:60,1,10,1
BRDA:60,1,11,0
BRDA:60,1,12,1
BRDA:60,1,13,0
BRDA:60,1,14,1
BRDA:60,1,15,0
BRDA:60,1,16,-
BRDA:60,1,17,-
BRDA:68,0,0,1
BRDA:68,0,1,0
BRDA:72,0,0,1
BRDA:72,0,1,0
BRDA:72,0,2,-
BRDA:72,0,3,-
BRDA:72,0,4,1
BRDA:72,0,5,0
BRDA:72,0,6,-
BRDA:72,0,7,-
BRDA:76,0,0,1
BRDA:76,0,1,0
BRDA:76,0,2,-
BRDA:76,0,3,-
BRDA:76,0,4,1
BRDA:76,0,5,0
BRDA:76,0,6,-
BRDA:76,0,7,-
BRDA:111,0,0,1
BRDA:111,0,1,0
BRDA:111,0,2,1
BRDA:111,0,3,0
BRDA:111,0,4,1
BRDA:111,0,5,0
BRDA:111,0,6,1
BRDA:111,0,7,0
BRDA:111,0,8,1
BRDA:111,0,9,0
BRF:48
BRH:23
DA:30,30
DA:31,15
DA:32,30
DA:35,30
DA:36,15
DA:37,30
DA:49,48
DA:50,48
DA:51,24
DA:52,48
DA:59,954
DA:60,477
DA:61,954
DA:67,28
DA:68,28
DA:69,28
DA:71,46
DA:72,46
DA:73,46
DA:75,48
DA:76,48
DA:77,48
DA:88,15
DA:89,15
DA:90,15
DA:91,15
DA:110,15
DA:111,15
DA:112,0
LF:29
LH:28
end_of_record
TN:
SF:/Users/acuoci/Downloads/cpp-github-tutorial/src/mathlib.cpp
FN:11,19,_ZN7mathlib9factorialEi
FN:7,8,_ZN7mathlib6squareEd
FNDA:1016,_ZN7mathlib9factorialEi
FNDA:51,_ZN7mathlib6squareEd
FNF:2
FNH:2
BRDA:12,0,0,1
BRDA:12,0,1,1
BRDA:12,0,2,1
BRDA:12,0,3,0
BRDA:13,0,0,1
BRDA:13,0,1,1
BRDA:13,0,2,1
BRDA:13,0,3,1
BRDA:15,0,0,1
BRDA:15,0,1,1
BRF:10
BRH:9
DA:7,51
DA:8,51
DA:11,1016
DA:12,1016
DA:13,1014
DA:14,1008
DA:15,10042
DA:16,9034
DA:17,9034
DA:18,1008
DA:19,1014
LF:11
LH:11
end_of_record
TN:
SF:/Users/acuoci/Downloads/cpp-github-tutorial/tests/test_basic.cpp
FN:13,_ZL22CATCH2_INTERNAL_TEST_2v
FN:20,_ZL22CATCH2_INTERNAL_TEST_4v
FN:5,_ZL22CATCH2_INTERNAL_TEST_0v
FNDA:1,_ZL22CATCH2_INTERNAL_TEST_2v
FNDA:1,_ZL22CATCH2_INTERNAL_TEST_4v
FNDA:1,_ZL22CATCH2_INTERNAL_TEST_0v
FNF:3
FNH:3
BRDA:6,0,0,1
BRDA:6,0,1,0
BRDA:6,0,2,1
BRDA:6,0,3,0
BRDA:6,0,4,1
BRDA:6,0,5,0
BRDA:6,0,6,1
BRDA:6,0,7,0
BRDA:6,0,8,-
BRDA:6,0,9,-
BRDA:6,0,10,-
BRDA:6,0,11,-
BRDA:6,0,12,1
BRDA:6,0,13,0
BRDA:6,0,14,-
BRDA:6,0,15,-
BRDA:7,0,0,1
BRDA:7,0,1,0
BRDA:7,0,2,1
BRDA:7,0,3,0
BRDA:7,0,4,1
BRDA:7,0,5,0
BRDA:7,0,6,1
BRDA:7,0,7,0
BRDA:7,0,8,-
BRDA:7,0,9,-
BRDA:7,0,10,-
BRDA:7,0,11,-
BRDA:7,0,12,1
BRDA:7,0,13,0
BRDA:7,0,14,-
BRDA:7,0,15,-
BRDA:8,0,0,1
BRDA:8,0,1,0
BRDA:8,0,2,1
BRDA:8,0,3,0
BRDA:8,0,4,1
BRDA:8,0,5,0
BRDA:8,0,6,1
BRDA:8,0,7,0
BRDA:8,0,8,-
BRDA:8,0,9,-
BRDA:8,0,10,-
BRDA:8,0,11,-
BRDA:8,0,12,1
BRDA:8,0,13,0
BRDA:8,0,14,-
BRDA:8,0,15,-
BRDA:9,0,0,1
BRDA:9,0,1,0
BRDA:9,0,2,1
BRDA:9,0,3,0
BRDA:9,0,4,1
BRDA:9,0,5,0
BRDA:9,0,6,1
BRDA:9,0,7,0
BRDA:9,0,8,-
BRDA:9,0,9,-
BRDA:9,0,10,-
BRDA:9,0,11,-
BRDA:9,0,12,1
BRDA:9,0,13,0
BRDA:9,0,14,-
BRDA:9,0,15,-
BRDA:10,0,0,1
BRDA:10,0,1,0
BRDA:10,0,2,1
BRDA:10,0,3,0
BRDA:10,0,4,1
BRDA:10,0,5,0
BRDA:10,0,6,1
BRDA:10,0,7,0
BRDA:10,0,8,-
BRDA:10,0,9,-
BRDA:10,0,10,-
BRDA:10,0,11,-
BRDA:10,0,12,1
BRDA:10,0,13,0
BRDA:10,0,14,-
BRDA:10,0,15,-
BRDA:14,0,0,1
BRDA:14,0,1,0
BRDA:14,0,2,1
BRDA:14,0,3,0
BRDA:14,0,4,1
BRDA:14,0,5,0
BRDA:14,0,6,1
BRDA:14,0,7,0
BRDA:14,0,8,-
BRDA:14,0,9,-
BRDA:14,0,10,-
BRDA:14,0,11,-
BRDA:14,0,12,1
BRDA:14,0,13,0
BRDA:14,0,14,-
BRDA:14,0,15,-
BRDA:15,0,0,1
BRDA:15,0,1,0
BRDA:15,0,2,1
BRDA:15,0,3,0
BRDA:15,0,4,1
BRDA:15,0,5,0
BRDA:15,0,6,1
BRDA:15,0,7,0
BRDA:15,0,8,-
BRDA:15,0,9,-
BRDA:15,0,10,-
BRDA:15,0,11,-
BRDA:15,0,12,1
BRDA:15,0,13,0
BRDA:15,0,14,-
BRDA:15,0,15,-
BRDA:16,0,0,1
BRDA:16,0,1,0
BRDA:16,0,2,1
BRDA:16,0,3,0
BRDA:16,0,4,1
BRDA:16,0,5,0
BRDA:16,0,6,1
BRDA:16,0,7,0
BRDA:16,0,8,-
BRDA:16,0,9,-
BRDA:16,0,10,-
BRDA:16,0,11,-
BRDA:16,0,12,1
BRDA:16,0,13,0
BRDA:16,0,14,-
BRDA:16,0,15,-
BRDA:17,0,0,1
BRDA:17,0,1,0
BRDA:17,0,2,1
BRDA:17,0,3,0
BRDA:17,0,4,1
BRDA:17,0,5,0
BRDA:17,0,6,1
BRDA:17,0,7,0
BRDA:17,0,8,-
BRDA:17,0,9,-
BRDA:17,0,10,-
BRDA:17,0,11,-
BRDA:17,0,12,1
BRDA:17,0,13,0
BRDA:17,0,14,-
BRDA:17,0,15,-
BRDA:21,0,0,1
BRDA:21,0,1,0
BRDA:21,0,2,0
BRDA:21,0,3,1
BRDA:21,0,4,0
BRDA:21,0,5,1
BRDA:21,0,6,-
BRDA:21,0,7,-
BRDA:21,0,8,1
BRDA:21,0,9,0
BRDA:21,0,10,1
BRDA:21,0,11,0
BRDA:21,0,12,1
BRDA:21,0,13,0
BRDA:21,0,14,-
BRDA:21,0,15,-
BRDA:21,0,16,-
BRDA:21,0,17,-
BRDA:21,0,18,-
BRDA:21,0,19,-
BRDA:21,0,20,-
BRDA:21,0,21,-
BRDA:21,0,22,-
BRDA:21,0,23,-
BRDA:21,0,24,1
BRDA:21,0,25,0
BRDA:22,0,0,1
BRDA:22,0,1,0
BRDA:22,0,2,0
BRDA:22,0,3,1
BRDA:22,0,4,0
BRDA:22,0,5,1
BRDA:22,0,6,-
BRDA:22,0,7,-
BRDA:22,0,8,1
BRDA:22,0,9,0
BRDA:22,0,10,1
BRDA:22,0,11,0
BRDA:22,0,12,1
BRDA:22,0,13,0
BRDA:22,0,14,-
BRDA:22,0,15,-
BRDA:22,0,16,-
BRDA:22,0,17,-
BRDA:22,0,18,-
BRDA:22,0,19,-
BRDA:22,0,20,-
BRDA:22,0,21,-
BRDA:22,0,22,-
BRDA:22,0,23,-
BRDA:22,0,24,1
BRDA:22,0,25,0
BRF:196
BRH:59
DA:5,11
DA:6,1
DA:7,1
DA:8,1
DA:9,1
DA:10,1
DA:11,1
DA:13,11
DA:14,1
DA:15,1
DA:16,1
DA:17,1
DA:18,1
DA:20,11
DA:21,2
DA:22,2
DA:23,3
LF:17
LH:17
end_of_record
TN:
SF:/Users/acuoci/Downloads/cpp-github-tutorial/tests/test_main.cpp
FN:6,8,main
FNDA:10,main
FNF:1
FNH:1
BRDA:7,0,0,1
BRDA:7,0,1,0
BRF:2
BRH:1
DA:6,10
DA:7,10
DA:8,0
LF:3
LH:2
end_of_record
TN:
SF:/Users/acuoci/Downloads/cpp-github-tutorial/tests/test_mathlib.cpp
FN:12,_ZL22CATCH2_INTERNAL_TEST_0v
FN:38,_ZL22CATCH2_INTERNAL_TEST_6v
FN:39,_ZZL22CATCH2_INTERNAL_TEST_6vENK3$_0clEv
FN:48,_ZL22CATCH2_INTERNAL_TEST_9v
FN:50,_ZZL22CATCH2_INTERNAL_TEST_9vENK3$_0clEv
FN:55,_ZZL22CATCH2_INTERNAL_TEST_9vENK3$_1clEv
FN:61,_ZL23CATCH2_INTERNAL_TEST_15v
FN:79,_ZL23CATCH2_INTERNAL_TEST_20v
FN:90,_ZL23CATCH2_INTERNAL_TEST_22v
FNDA:4,_ZL22CATCH2_INTERNAL_TEST_0v
FNDA:8,_ZL22CATCH2_INTERNAL_TEST_6v
FNDA:1,_ZZL22CATCH2_INTERNAL_TEST_6vENK3$_0clEv
FNDA:20,_ZL22CATCH2_INTERNAL_TEST_9v
FNDA:1,_ZZL22CATCH2_INTERNAL_TEST_9vENK3$_0clEv
FNDA:1,_ZZL22CATCH2_INTERNAL_TEST_9vENK3$_1clEv
FNDA:3,_ZL23CATCH2_INTERNAL_TEST_15v
FNDA:1,_ZL23CATCH2_INTERNAL_TEST_20v
FNDA:1,_ZL23CATCH2_INTERNAL_TEST_22v
FNF:9
FNH:9
BRDA:13,0,0,1
BRDA:13,0,1,0
BRDA:13,0,2,1
BRDA:13,0,3,1
BRDA:14,0,0,1
BRDA:14,0,1,0
BRDA:14,0,2,1
BRDA:14,0,3,0
BRDA:14,0,4,1
BRDA:14,0,5,0
BRDA:14,0,6,1
BRDA:14,0,7,0
BRDA:14,0,8,1
BRDA:14,0,9,0
BRDA:14,0,10,-
BRDA:14,0,11,-
BRDA:14,0,12,-
BRDA:14,0,13,-
BRDA:14,0,14,1
BRDA:14,0,15,0
BRDA:14,0,16,-
BRDA:14,0,17,-
BRDA:15,0,0,1
BRDA:15,0,1,0
BRDA:15,0,2,1
BRDA:15,0,3,0
BRDA:15,0,4,1
BRDA:15,0,5,0
BRDA:15,0,6,1
BRDA:15,0,7,0
BRDA:15,0,8,1
BRDA:15,0,9,0
BRDA:15,0,10,-
BRDA:15,0,11,-
BRDA:15,0,12,-
BRDA:15,0,13,-
BRDA:15,0,14,1
BRDA:15,0,15,0
BRDA:15,0,16,-
BRDA:15,0,17,-
BRDA:16,0,0,1
BRDA:16,0,1,0
BRDA:16,0,2,1
BRDA:16,0,3,0
BRDA:16,0,4,1
BRDA:16,0,5,0
BRDA:16,0,6,1
BRDA:16,0,7,0
BRDA:16,0,8,1
BRDA:16,0,9,0
BRDA:16,0,10,-
BRDA:16,0,11,-
BRDA:16,0,12,-
BRDA:16,0,13,-
BRDA:16,0,14,1
BRDA:16,0,15,0
BRDA:16,0,16,-
BRDA:16,0,17,-
BRDA:19,0,0,1
BRDA:19,0,1,0
BRDA:19,0,2,1
BRDA:19,0,3,1
BRDA:20,0,0,1
BRDA:20,0,1,0
BRDA:20,0,2,1
BRDA:20,0,3,0
BRDA:20,0,4,1
BRDA:20,0,5,0
BRDA:20,0,6,1
BRDA:20,0,7,0
BRDA:20,0,8,1
BRDA:20,0,9,0
BRDA:20,0,10,-
BRDA:20,0,11,-
BRDA:20,0,12,-
BRDA:20,0,13,-
BRDA:20,0,14,1
BRDA:20,0,15,0
BRDA:20,0,16,-
BRDA:20,0,17,-
BRDA:21,0,0,1
BRDA:21,0,1,0
BRDA:21,0,2,1
BRDA:21,0,3,0
BRDA:21,0,4,1
BRDA:21,0,5,0
BRDA:21,0,6,1
BRDA:21,0,7,0
BRDA:21,0,8,1
BRDA:21,0,9,0
BRDA:21,0,10,-
BRDA:21,0,11,-
BRDA:21,0,12,-
BRDA:21,0,13,-
BRDA:21,0,14,1
BRDA:21,0,15,0
BRDA:21,0,16,-
BRDA:21,0,17,-
BRDA:22,0,0,1
BRDA:22,0,1,0
BRDA:22,0,2,1
BRDA:22,0,3,0
BRDA:22,0,4,1
BRDA:22,0,5,0
BRDA:22,0,6,1
BRDA:22,0,7,0
BRDA:22,0,8,1
BRDA:22,0,9,0
BRDA:22,0,10,-
BRDA:22,0,11,-
BRDA:22,0,12,-
BRDA:22,0,13,-
BRDA:22,0,14,1
BRDA:22,0,15,0
BRDA:22,0,16,-
BRDA:22,0,17,-
BRDA:25,0,0,1
BRDA:25,0,1,0
BRDA:25,0,2,1
BRDA:25,0,3,1
BRDA:26,0,0,1
BRDA:26,0,1,0
BRDA:26,0,2,1
BRDA:26,0,3,0
BRDA:26,0,4,1
BRDA:26,0,5,0
BRDA:26,0,6,1
BRDA:26,0,7,0
BRDA:26,0,8,1
BRDA:26,0,9,0
BRDA:26,0,10,1
BRDA:26,0,11,0
BRDA:26,0,12,1
BRDA:26,0,13,0
BRDA:26,0,14,-
BRDA:26,0,15,-
BRDA:26,0,16,-
BRDA:26,0,17,-
BRDA:26,0,18,1
BRDA:26,0,19,0
BRDA:26,0,20,-
BRDA:26,0,21,-
BRDA:27,0,0,1
BRDA:27,0,1,0
BRDA:27,0,2,1
BRDA:27,0,3,0
BRDA:27,0,4,1
BRDA:27,0,5,0
BRDA:27,0,6,1
BRDA:27,0,7,0
BRDA:27,0,8,1
BRDA:27,0,9,0
BRDA:27,0,10,1
BRDA:27,0,11,0
BRDA:27,0,12,1
BRDA:27,0,13,0
BRDA:27,0,14,-
BRDA:27,0,15,-
BRDA:27,0,16,-
BRDA:27,0,17,-
BRDA:27,0,18,1
BRDA:27,0,19,0
BRDA:27,0,20,-
BRDA:27,0,21,-
BRDA:28,0,0,1
BRDA:28,0,1,0
BRDA:28,0,2,1
BRDA:28,0,3,0
BRDA:28,0,4,1
BRDA:28,0,5,0
BRDA:28,0,6,1
BRDA:28,0,7,0
BRDA:28,0,8,1
BRDA:28,0,9,0
BRDA:28,0,10,1
BRDA:28,0,11,0
BRDA:28,0,12,1
BRDA:28,0,13,0
BRDA:28,0,14,-
BRDA:28,0,15,-
BRDA:28,0,16,-
BRDA:28,0,17,-
BRDA:28,0,18,1
BRDA:28,0,19,0
BRDA:28,0,20,-
BRDA:28,0,21,-
BRDA:31,0,0,1
BRDA:31,0,1,0
BRDA:31,0,2,1
BRDA:31,0,3,1
BRDA:32,0,0,1
BRDA:32,0,1,0
BRDA:32,0,2,1
BRDA:32,0,3,0
BRDA:32,0,4,1
BRDA:32,0,5,0
BRDA:32,0,6,1
BRDA:32,0,7,0
BRDA:32,0,8,1
BRDA:32,0,9,0
BRDA:32,0,10,-
BRDA:32,0,11,-
BRDA:32,0,12,-
BRDA:32,0,13,-
BRDA:32,0,14,1
BRDA:32,0,15,0
BRDA:32,0,16,-
BRDA:32,0,17,-
BRDA:33,0,0,1
BRDA:33,0,1,0
BRDA:33,0,2,1
BRDA:33,0,3,0
BRDA:33,0,4,1
BRDA:33,0,5,0
BRDA:33,0,6,1
BRDA:33,0,7,0
BRDA:33,0,8,-
BRDA:33,0,9,-
BRDA:33,0,10,-
BRDA:33,0,11,-
BRDA:33,0,12,1
BRDA:33,0,13,0
BRDA:33,0,14,-
BRDA:33,0,15,-
BRDA:44,0,0,1
BRDA:44,0,1,0
BRDA:44,0,2,1
BRDA:44,0,3,0
BRDA:44,0,4,1
BRDA:44,0,5,0
BRDA:44,0,6,1
BRDA:44,0,7,0
BRDA:44,0,8,-
BRDA:44,0,9,-
BRDA:44,0,10,-
BRDA:44,0,11,-
BRDA:44,0,12,1
BRDA:44,0,13,0
BRDA:44,0,14,-
BRDA:44,0,15,-
BRDA:49,0,0,1
BRDA:49,0,1,0
BRDA:49,0,2,1
BRDA:49,0,3,1
BRDA:50,0,0,1
BRDA:50,0,1,0
BRDA:50,0,2,1
BRDA:50,0,3,0
BRDA:50,0,4,1
BRDA:50,0,5,0
BRDA:51,0,0,1
BRDA:51,0,1,0
BRDA:51,0,2,1
BRDA:51,0,3,0
BRDA:51,0,4,1
BRDA:51,0,5,0
BRDA:51,0,6,1
BRDA:51,0,7,0
BRDA:51,0,8,1
BRDA:51,0,9,0
BRDA:51,0,10,1
BRDA:51,0,11,0
BRDA:51,0,12,1
BRDA:51,0,13,0
BRDA:51,0,14,-
BRDA:51,0,15,-
BRDA:51,0,16,-
BRDA:51,0,17,-
BRDA:51,0,18,1
BRDA:51,0,19,0
BRDA:51,0,20,-
BRDA:51,0,21,-
BRDA:54,0,0,1
BRDA:54,0,1,0
BRDA:54,0,2,1
BRDA:54,0,3,1
BRDA:55,0,0,1
BRDA:55,0,1,0
BRDA:55,0,2,1
BRDA:55,0,3,0
BRDA:55,0,4,1
BRDA:55,0,5,0
BRDA:56,0,0,1
BRDA:56,0,1,0
BRDA:56,0,2,1
BRDA:56,0,3,0
BRDA:56,0,4,1
BRDA:56,0,5,0
BRDA:56,0,6,1
BRDA:56,0,7,0
BRDA:56,0,8,1
BRDA:56,0,9,0
BRDA:56,0,10,1
BRDA:56,0,11,0
BRDA:56,0,12,-
BRDA:56,0,13,-
BRDA:56,0,14,-
BRDA:56,0,15,-
BRDA:56,0,16,1
BRDA:56,0,17,0
BRDA:56,0,18,-
BRDA:56,0,19,-
BRDA:62,0,0,1
BRDA:62,0,1,0
BRDA:62,0,2,1
BRDA:62,0,3,1
BRDA:64,0,0,1
BRDA:64,0,1,0
BRDA:64,0,2,1
BRDA:64,0,3,0
BRDA:64,0,4,1
BRDA:64,0,5,0
BRDA:64,0,6,1
BRDA:64,0,7,0
BRDA:64,0,8,1
BRDA:64,0,9,0
BRDA:64,0,10,1
BRDA:64,0,11,0
BRDA:64,0,12,1
BRDA:64,0,13,0
BRDA:64,0,14,-
BRDA:64,0,15,-
BRDA:64,0,16,-
BRDA:64,0,17,-
BRDA:64,0,18,1
BRDA:64,0,19,0
BRDA:64,0,20,-
BRDA:64,0,21,-
BRDA:67,0,0,1
BRDA:67,0,1,0
BRDA:67,0,2,1
BRDA:67,0,3,1
BRDA:69,0,0,1
BRDA:69,0,1,0
BRDA:69,0,2,1
BRDA:69,0,3,0
BRDA:69,0,4,1
BRDA:69,0,5,0
BRDA:69,0,6,1
BRDA:69,0,7,0
BRDA:69,0,8,1
BRDA:69,0,9,0
BRDA:69,0,10,1
BRDA:69,0,11,0
BRDA:69,0,12,1
BRDA:69,0,13,0
BRDA:69,0,14,-
BRDA:69,0,15,-
BRDA:69,0,16,-
BRDA:69,0,17,-
BRDA:69,0,18,1
BRDA:69,0,19,0
BRDA:69,0,20,-
BRDA:69,0,21,-
BRDA:72,0,0,1
BRDA:72,0,1,0
BRDA:72,0,2,1
BRDA:72,0,3,1
BRDA:73,0,0,1
BRDA:73,0,1,0
BRDA:73,0,2,1
BRDA:73,0,3,0
BRDA:73,0,4,1
BRDA:73,0,5,0
BRDA:73,0,6,1
BRDA:73,0,7,0
BRDA:73,0,8,1
BRDA:73,0,9,0
BRDA:73,0,10,-
BRDA:73,0,11,-
BRDA:73,0,12,-
BRDA:73,0,13,-
BRDA:73,0,14,1
BRDA:73,0,15,0
BRDA:73,0,16,-
BRDA:73,0,17,-
BRDA:74,0,0,1
BRDA:74,0,1,0
BRDA:74,0,2,1
BRDA:74,0,3,0
BRDA:74,0,4,1
BRDA:74,0,5,0
BRDA:74,0,6,1
BRDA:74,0,7,0
BRDA:74,0,8,1
BRDA:74,0,9,0
BRDA:74,0,10,-
BRDA:74,0,11,-
BRDA:74,0,12,-
BRDA:74,0,13,-
BRDA:74,0,14,1
BRDA:74,0,15,0
BRDA:74,0,16,-
BRDA:74,0,17,-
BRDA:82,0,0,1
BRDA:82,0,1,1
BRDA:86,0,0,1
BRDA:86,0,1,0
BRDA:86,0,2,1
BRDA:86,0,3,0
BRDA:86,0,4,1
BRDA:86,0,5,0
BRDA:86,0,6,1
BRDA:86,0,7,0
BRDA:86,0,8,1
BRDA:86,0,9,0
BRDA:86,0,10,1
BRDA:86,0,11,0
BRDA:91,0,0,1
BRDA:91,0,1,0
BRDA:91,0,2,1
BRDA:91,0,3,0
BRDA:91,0,4,1
BRDA:91,0,5,0
BRDA:91,0,6,1
BRDA:91,0,7,0
BRDA:91,0,8,-
BRDA:91,0,9,-
BRDA:91,0,10,-
BRDA:91,0,11,-
BRDA:91,0,12,1
BRDA:91,0,13,0
BRDA:91,0,14,-
BRDA:91,0,15,-
BRDA:92,0,0,1
BRDA:92,0,1,0
BRDA:92,0,2,1
BRDA:92,0,3,0
BRDA:92,0,4,1
BRDA:92,0,5,0
BRDA:92,0,6,1
BRDA:92,0,7,0
BRDA:92,0,8,-
BRDA:92,0,9,-
BRDA:92,0,10,-
BRDA:92,0,11,-
BRDA:92,0,12,1
BRDA:92,0,13,0
BRDA:92,0,14,-
BRDA:92,0,15,-
BRDA:93,0,0,1
BRDA:93,0,1,0
BRDA:93,0,2,1
BRDA:93,0,3,0
BRDA:93,0,4,1
BRDA:93,0,5,0
BRDA:93,0,6,1
BRDA:93,0,7,0
BRDA:93,0,8,-
BRDA:93,0,9,-
BRDA:93,0,10,-
BRDA:93,0,11,-
BRDA:93,0,12,1
BRDA:93,0,13,0
BRDA:93,0,14,-
BRDA:93,0,15,-
BRF:456
BRH:175
DA:12,14
DA:13,5
DA:14,1
DA:15,1
DA:16,1
DA:17,1
DA:19,5
DA:20,1
DA:21,1
DA:22,1
DA:23,1
DA:25,5
DA:26,1
DA:27,1
DA:28,1
DA:29,1
DA:31,5
DA:32,1
DA:33,1
DA:34,1
DA:35,4
DA:38,18
DA:39,9
DA:42,8
DA:44,8
DA:45,8
DA:48,30
DA:49,30
DA:50,11
DA:51,10
DA:52,10
DA:54,30
DA:55,11
DA:56,10
DA:57,10
DA:58,20
DA:61,13
DA:62,4
DA:63,1
DA:64,1
DA:65,1
DA:67,4
DA:68,1
DA:69,1
DA:70,1
DA:72,4
DA:73,1
DA:74,1
DA:75,1
DA:76,3
DA:79,11
DA:82,1001
DA:83,1000
DA:84,1000
DA:85,1000
DA:86,1
DA:87,1
DA:90,11
DA:91,1
DA:92,1
DA:93,1
DA:94,1
LF:62
LH:62
end_of_record
